((lp0
(lp1
F-0.31422102275044517
aF0.019317650505657372
aF-0.7486101714063651
aF-0.5012044350682164
aF1.0061256852204397
aF0.5505853290304621
aF-0.5091387362821441
aF0.6141785192398107
aF-0.6242295469597872
aa(lp2
F-0.9505351484138562
aF0.3027058465023044
aF0.6714816015519108
aF0.2970661021865968
aF-0.1637179214356701
aF0.6612895472765989
aF0.44774513678162803
aF-0.14605335645625253
aF0.8206062738922829
aa(lp3
F0.9491575027735057
aF0.4466431917350891
aF0.595794764330981
aF-0.1570154665409586
aF0.9994002921346423
aF0.3637351803667448
aF-0.6689891605767151
aF0.2365875461918295
aF0.015362549402123402
aa(lp4
F0.144555186710698
aF0.4362008992851193
aF-0.045348923598079634
aF-0.4251159372224315
aF-0.38304762424382754
aF0.9631914582455339
aF-0.6651833375390164
aF0.12924417256659834
aF0.0540568137270503
aa(lp5
F0.2235389241865653
aF-0.7333950078093628
aF-0.46129262823473377
aF0.35831136092182586
aF0.6214280516833087
aF-0.24284949368912903
aF-0.6353388860673703
aF-0.32898342155816274
aF-0.9320156497320649
aa(lp6
F0.2993908085097199
aF0.3507128092526724
aF-0.8907909811299791
aF0.23441854773456702
aF-0.28068268122632994
aF-0.17422214861189939
aF-0.14889287325979794
aF-0.8072182583714361
aF0.8503866757499638
aa(lp7
F-0.5015335024172525
aF0.34202867669960724
aF0.37296226649807496
aF-0.31146557768499317
aF0.4925497957325932
aF-0.9901847503321112
aF-0.16631189081964312
aF-0.03624002574585596
aF-0.1509908597544108
aa(lp8
F-0.4816977861723042
aF-0.0637697768554162
aF0.4220700080410379
aF0.45372718204051227
aF-0.35650856205338927
aF-0.6441824047541348
aF-0.02903249576343365
aF1.0087699693530237
aF0.255076708829011
aa(lp9
F-0.9195827617905621
aF-0.008313634188306041
aF0.8518462979067251
aF0.538535164586497
aF0.10463631472612929
aF0.5917093082658278
aF1.0120130322495973
aF-0.266041514316226
aF0.7967269405126101
aa(lp10
F-0.8433858676101467
aF0.6732782124489987
aF1.0436435915272984
aF0.5792618254701121
aF-0.8808673207701576
aF-0.1849082849924776
aF0.1887204520434097
aF-0.8516319993003733
aF0.3286599763523617
aa(lp11
F0.45901360665400137
aF-0.24649653484820985
aF0.4820951859276972
aF-0.9370251315398574
aF-0.128599378272738
aF-0.8048906881365665
aF-0.1580658345482508
aF-0.256085293466528
aF-0.6391579033761071
aa(lp12
F0.4806622561539673
aF0.5182870293034486
aF-0.5966989264650233
aF-0.8888122216802907
aF-0.5991164240672746
aF0.3219530981926863
aF0.6859723807469517
aF-0.27418195848966137
aF0.557840897298246
aa(lp13
F0.12341281442377605
aF-0.8409822881401114
aF0.6578470272086525
aF-0.8289921979762223
aF0.5144866574413894
aF0.01055725990134955
aF0.9707049809281818
aF0.9680755285953411
aF-0.9532051324444951
aa(lp14
F-0.6959792910051643
aF-0.7689274593255667
aF0.8182392519555647
aF-0.14649137835484327
aF0.07637260645932803
aF0.14870658687674512
aF0.6487717061910335
aF-0.6983925723872044
aF-0.971412547929858
aa(lp15
F0.6958769422526467
aF-0.4322528501764022
aF-0.06679056367579758
aF0.11399298458713408
aF-0.6465731946169051
aF0.37004349207847764
aF-0.6236047227405246
aF0.6519565281455257
aF0.8187728657250533
aa(lp16
F0.8437408376236575
aF0.9578497390538423
aF0.5066890422975214
aF0.8851989463856672
aF0.12472232913114596
aF0.4354555597771142
aF-0.8968984454946978
aF-0.3110196033798212
aF0.9399109954925153
aa(lp17
F0.8570437329295444
aF-0.8090727291991601
aF0.7859618518066535
aF-0.6397037670178132
aF1.198742413061523
aF0.3333531189705586
aF1.2747077611188669
aF-0.7732079645430538
aF-0.1998816432898168
aF-0.33204142207151754
aF-0.15101982316777315
aF0.3680169128815734
aF-0.5069111107172222
aF0.3265617332679218
aF-0.557071250469491
aF0.28869598646179356
aF-0.880555411014095
atp18
.