((dp0
(I0
I0
I0
I2
I1
I9
I4
tp1
(F0.053841393155031385
I1791
tp2
s(I0
I1
I1
I0
I1
I8
I1
tp3
(F0.6132391466310324
I2
tp4
s(I0
I1
I0
I2
I1
I18
I4
tp5
(F-0.16539665580592783
I10
tp6
s(I0
I0
I1
I0
I1
I1
I4
tp7
(F0.06659978671901864
I16
tp8
s(I0
I0
I1
I1
I1
I4
I4
tp9
(F0.06386813882159093
I310
tp10
s(I0
I1
I0
I3
I0
I0
I4
tp11
(F-0.0021567272497763643
I551
tp12
s(I0
I0
I0
I2
I2
I9
I1
tp13
(F0.7153252237657054
I1243
tp14
s(I0
I0
I0
I1
I1
I4
I4
tp15
(F0.1830478709587259
I6575
tp16
s(I0
I0
I1
I1
I2
I15
I4
tp17
(F0.054178562972278785
I95
tp18
s(I0
I2
I0
I0
I2
I12
I1
tp19
(F0.5526338137699431
I3
tp20
s(I0
I1
I1
I0
I2
I17
I4
tp21
(F-0.07454326364289814
I4
tp22
s(I0
I1
I0
I1
I2
I8
I4
tp23
(F0.27064282266130124
I132
tp24
s(I0
I0
I0
I0
I2
I26
I4
tp25
(F-0.15657746856593985
I211
tp26
s(I0
I0
I1
I2
I1
I11
I2
tp27
(F0.24337390826382094
I11
tp28
s(I0
I0
I1
I0
I2
I14
I3
tp29
(F0.3846994132941105
I11
tp30
s(I0
I1
I0
I0
I1
I8
I1
tp31
(F0.6229003277827558
I33
tp32
s(I0
I1
I0
I2
I2
I9
I4
tp33
(F0.1252543265598169
I16
tp34
s(I0
I0
I0
I1
I2
I12
I3
tp35
(F0.4056248031999686
I2996
tp36
s(I0
I1
I0
I1
I1
I5
I1
tp37
(F0.6834019103957975
I40
tp38
s(I0
I0
I0
I1
I1
I6
I4
tp39
(F0.127190968825081
I5165
tp40
s(I0
I0
I0
I2
I1
I5
I4
tp41
(F0.09580137606433739
I4679
tp42
s(I0
I0
I0
I3
I2
I29
I4
tp43
(F-0.16081526942978516
I218
tp44
s(I0
I1
I1
I1
I1
I15
I4
tp45
(F0.03962135765540939
I328
tp46
s(I0
I0
I0
I1
I1
I8
I4
tp47
(F0.09440221030569614
I3328
tp48
s(I0
I0
I1
I0
I1
I15
I3
tp49
(F-0.10550528774990435
I14
tp50
s(I0
I1
I0
I3
I1
I13
I1
tp51
(F0.50886906494441
I7
tp52
s(I0
I0
I0
I1
I1
I13
I3
tp53
(F0.10868519655150376
I207
tp54
s(I0
I1
I0
I2
I1
I13
I3
tp55
(F-0.026633459310935245
I11
tp56
s(I0
I1
I0
I1
I2
I4
I4
tp57
(F0.3328868881849471
I4
tp58
s(I0
I0
I1
I0
I2
I33
I4
tp59
(F-0.12253641270620907
I16
tp60
s(I0
I1
I0
I3
I2
I6
I1
tp61
(F-0.01
I1
tp62
s(I0
I0
I1
I2
I2
I23
I2
tp63
(F-0.07575024143344015
I14
tp64
s(I0
I0
I0
I0
I2
I6
I4
tp65
(F0.22153805856231448
I2109
tp66
s(I0
I1
I1
I3
I1
I3
I4
tp67
(F0.2580542172066086
I589
tp68
s(I0
I0
I0
I2
I2
I22
I3
tp69
(F-0.04439815425870547
I45
tp70
s(I0
I0
I0
I0
I2
I3
I3
tp71
(F0.32270598402726586
I232
tp72
s(I0
I0
I0
I3
I2
I9
I1
tp73
(F0.7252458123878291
I1207
tp74
s(I0
I1
I0
I3
I2
I11
I3
tp75
(F0.48048007373899343
I11
tp76
s(I0
I0
I0
I3
I2
I25
I4
tp77
(F-0.12378251524769644
I293
tp78
s(I0
I2
I0
I1
I2
I16
I2
tp79
(F-0.01
I1
tp80
s(I0
I1
I0
I2
I2
I7
I2
tp81
(F0.5746362083176922
I42
tp82
s(I0
I0
I1
I3
I1
I5
I2
tp83
(F0.3694889587400259
I70
tp84
s(I0
I0
I0
I1
I2
I7
I1
tp85
(F0.7562374847961454
I1472
tp86
s(I0
I0
I1
I0
I2
I12
I2
tp87
(F0.5201537711519528
I43
tp88
s(I0
I0
I0
I3
I1
I2
I1
tp89
(F0.8494947479951127
I2083
tp90
s(I0
I1
I1
I1
I1
I3
I4
tp91
(F0.24066329504455158
I1141
tp92
s(I0
I1
I0
I1
I1
I3
I2
tp93
(F0.5939059681950644
I49
tp94
s(I0
I0
I0
I2
I1
I11
I1
tp95
(F0.4157430806420843
I301
tp96
s(I0
I1
I1
I0
I1
I10
I4
tp97
(F0.08298894862004828
I2325
tp98
s(I0
I0
I0
I3
I1
I15
I3
tp99
(F0.0799380694355631
I48
tp100
s(I0
I0
I0
I3
I1
I10
I4
tp101
(F-0.049348418151204616
I741
tp102
s(I0
I0
I1
I3
I2
I4
I2
tp103
(F0.488345253981577
I6
tp104
s(I0
I0
I0
I1
I1
I6
I1
tp105
(F0.6207283011671427
I1249
tp106
s(I0
I0
I1
I0
I1
I13
I2
tp107
(F0.16582412774765637
I3
tp108
s(I0
I2
I1
I2
I1
I14
I4
tp109
(F-0.05422596582689801
I4
tp110
s(I0
I1
I0
I2
I1
I6
I1
tp111
(F0.7184965414730756
I44
tp112
s(I0
I0
I0
I0
I2
I20
I3
tp113
(F0.3839980380893552
I81
tp114
s(I0
I0
I1
I1
I2
I6
I2
tp115
(F-0.035950897292498306
I4
tp116
s(I0
I0
I0
I2
I2
I2
I1
tp117
(F0.12825267535518614
I7
tp118
s(I0
I0
I0
I0
I1
I15
I4
tp119
(F-0.11682713164674541
I244
tp120
s(I0
I2
I1
I0
I2
I29
I4
tp121
(F-0.0195
I2
tp122
s(I0
I1
I0
I1
I2
I10
I1
tp123
(F0.7723678554846736
I116
tp124
s(I0
I0
I0
I0
I2
I8
I2
tp125
(F0.4834341545075082
I2146
tp126
s(I0
I0
I0
I0
I1
I10
I3
tp127
(F0.15207014263245447
I330
tp128
s(I0
I1
I0
I1
I2
I26
I4
tp129
(F-0.11364456744037495
I28
tp130
s(I0
I0
I0
I0
I2
I24
I1
tp131
(F0.5317510109078871
I25
tp132
s(I0
I0
I1
I0
I2
I23
I4
tp133
(F-0.1686118906164058
I50
tp134
s(I0
I1
I0
I3
I2
I16
I1
tp135
(F0.7651853704230906
I50
tp136
s(I0
I0
I0
I1
I2
I14
I2
tp137
(F0.5418413439799296
I1438
tp138
s(I0
I1
I1
I2
I2
I14
I4
tp139
(F-0.12153270726677443
I2
tp140
s(I0
I0
I1
I0
I2
I7
I3
tp141
(F0.255488638539686
I17
tp142
s(I0
I1
I0
I2
I2
I14
I2
tp143
(F0.5760326729424078
I51
tp144
s(I0
I0
I0
I2
I0
I0
I2
tp145
(F-0.1936512993023532
I15478
tp146
s(I0
I0
I0
I2
I1
I2
I2
tp147
(F0.5635093086569052
I2474
tp148
s(I0
I1
I0
I0
I2
I19
I1
tp149
(F0.6925784908271497
I14
tp150
s(I0
I2
I0
I3
I2
I20
I4
tp151
(F-0.06633855948819661
I3
tp152
s(I0
I0
I0
I3
I1
I4
I2
tp153
(F0.47655874525362985
I1194
tp154
s(I0
I0
I0
I1
I2
I21
I1
tp155
(F0.6220032225636893
I67
tp156
s(I0
I0
I0
I3
I2
I22
I3
tp157
(F0.05539039760072677
I49
tp158
s(I0
I2
I1
I2
I1
I10
I4
tp159
(F-0.033193166164020106
I4
tp160
s(I0
I0
I0
I1
I1
I15
I2
tp161
(F0.2006237876767984
I40
tp162
s(I0
I0
I1
I0
I1
I6
I3
tp163
(F0.18306425804726362
I21
tp164
s(I1
I0
I1
I2
I2
I0
I0
tp165
(F1.0
I1
tp166
s(I0
I1
I1
I1
I1
I18
I4
tp167
(F0.01393001082774991
I13
tp168
s(I0
I0
I1
I3
I2
I2
I3
tp169
(F-0.0195
I2
tp170
s(I0
I1
I0
I1
I2
I3
I2
tp171
(F-0.0195
I2
tp172
s(I0
I0
I1
I0
I2
I19
I4
tp173
(F-0.05667899600690873
I75
tp174
s(I0
I0
I0
I0
I1
I1
I2
tp175
(F0.507472932515157
I2836
tp176
s(I0
I1
I1
I3
I1
I13
I4
tp177
(F0.06195216151160419
I1085
tp178
s(I0
I0
I1
I1
I2
I8
I3
tp179
(F0.3740757931083135
I35
tp180
s(I0
I1
I0
I3
I2
I9
I2
tp181
(F0.5794290054586781
I6
tp182
s(I0
I1
I1
I2
I1
I16
I4
tp183
(F0.02872528540374232
I150
tp184
s(I0
I2
I0
I2
I2
I30
I3
tp185
(F-0.04977326299066517
I6
tp186
s(I0
I0
I0
I2
I2
I16
I1
tp187
(F0.7066212602453388
I367
tp188
s(I0
I2
I1
I1
I1
I14
I4
tp189
(F-0.0195
I2
tp190
s(I0
I0
I1
I2
I2
I27
I4
tp191
(F-0.1615639815119965
I50
tp192
s(I0
I0
I0
I1
I2
I12
I1
tp193
(F0.7054353420205163
I1433
tp194
s(I0
I1
I0
I1
I1
I5
I3
tp195
(F0.4054345202780651
I20
tp196
s(I0
I1
I0
I0
I1
I13
I4
tp197
(F0.046694949650313296
I179
tp198
s(I0
I1
I0
I2
I2
I12
I1
tp199
(F0.786828746056747
I123
tp200
s(I0
I0
I0
I2
I1
I16
I4
tp201
(F-0.1450248351942153
I137
tp202
s(I0
I0
I1
I2
I1
I4
I4
tp203
(F0.06750335829695296
I134
tp204
s(I0
I0
I0
I3
I2
I29
I2
tp205
(F-0.07431297688228683
I33
tp206
s(I0
I0
I0
I3
I1
I13
I2
tp207
(F0.24491234804791892
I129
tp208
s(I0
I1
I0
I2
I1
I16
I3
tp209
(F-0.0285205010339573
I5
tp210
s(I0
I0
I0
I1
I1
I13
I1
tp211
(F0.35839062132353416
I107
tp212
s(I0
I0
I1
I0
I1
I4
I4
tp213
(F0.0128086463275997
I160
tp214
s(I0
I1
I0
I2
I1
I13
I1
tp215
(F0.5349492760600281
I6
tp216
s(I0
I1
I0
I3
I2
I6
I3
tp217
(F-0.04376624970526384
I9
tp218
s(I0
I0
I1
I2
I2
I23
I4
tp219
(F-0.1675146712619605
I39
tp220
s(I0
I0
I1
I0
I2
I17
I1
tp221
(F0.7668280405664418
I101
tp222
s(I0
I0
I1
I2
I2
I18
I3
tp223
(F-0.11078593590114978
I5
tp224
s(I0
I0
I0
I0
I2
I3
I1
tp225
(F0.7502030071544397
I496
tp226
s(I0
I0
I1
I1
I2
I10
I4
tp227
(F0.15876051942032954
I152
tp228
s(I0
I1
I0
I0
I1
I17
I4
tp229
(F-0.11734870145800701
I21
tp230
s(I0
I1
I0
I3
I2
I11
I1
tp231
(F0.7396365698137428
I64
tp232
s(I0
I0
I1
I0
I2
I28
I3
tp233
(F-0.09624076172927545
I2
tp234
s(I0
I2
I0
I1
I2
I16
I4
tp235
(F-0.14895350920643582
I4
tp236
s(I0
I0
I1
I3
I1
I5
I4
tp237
(F0.004260724581974748
I129
tp238
s(I0
I1
I0
I0
I2
I4
I4
tp239
(F0.3014559140274876
I6
tp240
s(I0
I0
I0
I3
I2
I4
I1
tp241
(F0.6916700069825681
I156
tp242
s(I0
I0
I1
I2
I2
I13
I4
tp243
(F0.14889316878422484
I254
tp244
s(I0
I0
I0
I3
I1
I2
I3
tp245
(F0.3371919738834926
I1321
tp246
s(I0
I1
I0
I0
I2
I20
I1
tp247
(F0.5213332040808983
I5
tp248
s(I0
I0
I0
I1
I2
I2
I4
tp249
(F0.2634145830729989
I9
tp250
s(I0
I0
I1
I3
I1
I8
I3
tp251
(F0.05221696267770434
I19
tp252
s(I0
I0
I0
I3
I2
I20
I2
tp253
(F0.47897821013802505
I129
tp254
s(I0
I0
I0
I1
I2
I18
I1
tp255
(F0.6670734399498951
I186
tp256
s(I0
I1
I1
I1
I1
I4
I3
tp257
(F0.3912870977724543
I5
tp258
s(I0
I0
I0
I3
I1
I15
I1
tp259
(F0.349189186606333
I34
tp260
s(I0
I0
I0
I2
I2
I29
I1
tp261
(F-0.0195
I2
tp262
s(I0
I1
I0
I2
I2
I12
I3
tp263
(F0.4392663716794311
I18
tp264
s(I0
I0
I1
I1
I2
I22
I1
tp265
(F-0.028104999867941474
I3
tp266
s(I0
I0
I1
I2
I2
I22
I2
tp267
(F-0.08306716525675667
I4
tp268
s(I0
I0
I1
I3
I2
I9
I3
tp269
(F0.3481058521411158
I16
tp270
s(I0
I0
I1
I1
I2
I6
I4
tp271
(F0.19969494684660485
I29
tp272
s(I0
I1
I0
I2
I1
I3
I4
tp273
(F0.25917356092206933
I8675
tp274
s(I0
I2
I0
I0
I2
I11
I3
tp275
(F0.4231622431748736
I3
tp276
s(I0
I1
I1
I0
I2
I24
I4
tp277
(F-0.028104999867941474
I3
tp278
s(I0
I0
I1
I0
I1
I18
I4
tp279
(F-0.16643173671769176
I2
tp280
s(I0
I0
I1
I1
I2
I3
I3
tp281
(F-0.020512877195352316
I5
tp282
s(I0
I0
I0
I2
I2
I7
I4
tp283
(F0.21593719061865407
I2498
tp284
s(I0
I0
I0
I0
I1
I10
I1
tp285
(F0.4342260468090393
I518
tp286
s(I0
I0
I0
I2
I2
I23
I1
tp287
(F0.654351308013633
I12
tp288
s(I0
I0
I1
I2
I2
I9
I4
tp289
(F0.19655944023993827
I435
tp290
s(I0
I0
I0
I1
I2
I14
I4
tp291
(F0.13181590956663575
I4464
tp292
s(I0
I0
I1
I0
I2
I7
I1
tp293
(F0.7484786562319089
I69
tp294
s(I0
I1
I0
I3
I2
I21
I4
tp295
(F-0.1569098120235779
I33
tp296
s(I0
I0
I0
I2
I1
I18
I3
tp297
(F-0.020644274658046906
I9
tp298
s(I0
I0
I0
I0
I2
I21
I1
tp299
(F0.646306242917764
I81
tp300
s(I0
I0
I1
I2
I1
I2
I1
tp301
(F0.828062084931641
I97
tp302
s(I0
I1
I0
I1
I1
I10
I3
tp303
(F0.2940775255392312
I13
tp304
s(I0
I0
I0
I3
I2
I27
I3
tp305
(F-0.09620262855126696
I49
tp306
s(I0
I1
I0
I0
I2
I19
I3
tp307
(F-0.03139080157510376
I6
tp308
s(I0
I0
I0
I1
I2
I21
I3
tp309
(F0.37097402790938827
I71
tp310
s(I0
I0
I0
I3
I2
I22
I1
tp311
(F0.6332641875904902
I46
tp312
s(I0
I0
I1
I3
I1
I9
I2
tp313
(F0.26530123936641403
I19
tp314
s(I0
I0
I0
I1
I2
I16
I4
tp315
(F0.10728482137528905
I3130
tp316
s(I0
I1
I1
I1
I1
I6
I4
tp317
(F0.15624304165227315
I2503
tp318
s(I0
I0
I0
I3
I1
I17
I4
tp319
(F-0.16727853721155558
I66
tp320
s(I0
I0
I0
I2
I2
I26
I3
tp321
(F-0.09538421186358946
I32
tp322
s(I0
I0
I1
I0
I1
I6
I1
tp323
(F0.6002377987964586
I57
tp324
s(I0
I1
I0
I2
I1
I15
I4
tp325
(F-0.012073582961393645
I83
tp326
s(I0
I0
I1
I1
I1
I15
I1
tp327
(F0.3203934728306637
I3
tp328
s(I0
I0
I1
I2
I2
I16
I2
tp329
(F0.5851176513974159
I56
tp330
s(I1
I0
I0
I3
I0
I0
I0
tp331
(F1.0
I1
tp332
s(I0
I0
I1
I1
I2
I8
I1
tp333
(F0.7360016541716463
I54
tp334
s(I0
I0
I1
I2
I2
I25
I2
tp335
(F-0.062054789616884674
I10
tp336
s(I0
I1
I0
I3
I2
I9
I4
tp337
(F-0.09124497593591682
I12
tp338
s(I0
I0
I0
I2
I2
I16
I3
tp339
(F0.4153187676057609
I719
tp340
s(I0
I1
I1
I0
I2
I14
I4
tp341
(F-0.03044638060245055
I2
tp342
s(I0
I1
I0
I1
I2
I24
I3
tp343
(F-0.06916933316224175
I11
tp344
s(I0
I0
I0
I2
I2
I21
I4
tp345
(F0.027012780858414357
I693
tp346
s(I0
I0
I1
I3
I0
I0
I2
tp347
(F-0.16114045910059624
I551
tp348
s(I0
I0
I1
I2
I2
I11
I1
tp349
(F0.7241086508039046
I225
tp350
s(I0
I1
I0
I0
I2
I10
I4
tp351
(F0.21234151392707917
I9
tp352
s(I0
I0
I0
I2
I1
I16
I2
tp353
(F0.17833757608348055
I8
tp354
s(I0
I0
I0
I1
I2
I28
I4
tp355
(F-0.1560332797723435
I193
tp356
s(I0
I0
I1
I2
I1
I4
I2
tp357
(F0.4742115963677733
I58
tp358
s(I0
I1
I0
I1
I1
I8
I2
tp359
(F0.4432166969792405
I46
tp360
s(I0
I0
I0
I3
I1
I13
I4
tp361
(F-0.09603283157088839
I292
tp362
s(I0
I0
I0
I0
I2
I32
I3
tp363
(F-0.062120498891049016
I4
tp364
s(I1
I0
I0
I3
I2
I0
I0
tp365
(F1.0
I1
tp366
s(I0
I0
I1
I3
I2
I11
I2
tp367
(F0.4676208456321232
I49
tp368
s(I0
I0
I1
I1
I2
I17
I1
tp369
(F0.7981985483216371
I63
tp370
s(I0
I0
I1
I1
I1
I1
I2
tp371
(F0.3811749035133118
I298
tp372
s(I0
I1
I1
I0
I2
I10
I4
tp373
(F-0.08214054501989534
I4
tp374
s(I0
I1
I0
I3
I1
I16
I4
tp375
(F-0.08439425155113256
I49
tp376
s(I0
I0
I1
I0
I2
I17
I3
tp377
(F0.23869543968082407
I13
tp378
s(I0
I0
I1
I3
I2
I16
I1
tp379
(F0.7719630540370879
I66
tp380
s(I0
I0
I1
I2
I2
I18
I1
tp381
(F0.7114970819368631
I40
tp382
s(I0
I2
I0
I2
I2
I8
I3
tp383
(F-0.028104999867941474
I3
tp384
s(I0
I2
I0
I0
I1
I15
I4
tp385
(F-0.0366997498745444
I3
tp386
s(I0
I1
I1
I3
I1
I8
I4
tp387
(F0.13214108849396508
I2753
tp388
s(I0
I1
I0
I3
I2
I27
I4
tp389
(F-0.12105282884753753
I16
tp390
s(I0
I0
I1
I3
I1
I16
I4
tp391
(F-0.1706184017951457
I13
tp392
s(I0
I0
I1
I2
I1
I13
I1
tp393
(F0.38927788112415357
I6
tp394
s(I0
I0
I0
I3
I2
I4
I3
tp395
(F0.34323846042550843
I211
tp396
s(I0
I0
I1
I2
I2
I13
I2
tp397
(F0.5473074007410579
I174
tp398
s(I0
I1
I0
I0
I2
I20
I3
tp399
(F-0.10346602501342818
I6
tp400
s(I0
I2
I0
I3
I2
I13
I4
tp401
(F-0.06440184093521542
I4
tp402
s(I0
I0
I0
I3
I2
I20
I4
tp403
(F0.04099002883685811
I570
tp404
s(I0
I0
I0
I1
I2
I18
I3
tp405
(F0.3908804772711275
I406
tp406
s(I0
I1
I1
I1
I1
I4
I1
tp407
(F-0.041122420449668774
I5
tp408
s(I0
I1
I0
I2
I2
I26
I3
tp409
(F-0.04734941142194114
I10
tp410
s(I0
I1
I1
I0
I1
I17
I4
tp411
(F0.02666135300884672
I54
tp412
s(I0
I0
I1
I1
I1
I8
I1
tp413
(F0.5253441634210079
I86
tp414
s(I0
I1
I0
I3
I1
I15
I2
tp415
(F0.3383788463804117
I2
tp416
s(I0
I1
I0
I3
I2
I32
I4
tp417
(F-0.10560869889861654
I7
tp418
s(I0
I2
I0
I1
I1
I13
I4
tp419
(F-0.05398429528576067
I9
tp420
s(I0
I0
I1
I1
I2
I19
I4
tp421
(F-0.011342869885155753
I69
tp422
s(I0
I1
I1
I3
I1
I4
I4
tp423
(F0.20684511370169475
I793
tp424
s(I0
I1
I0
I3
I1
I2
I2
tp425
(F0.6592634088570575
I29
tp426
s(I0
I1
I1
I3
I1
I1
I3
tp427
(F0.36195541283999577
I35
tp428
s(I0
I0
I0
I2
I2
I23
I3
tp429
(F-0.07841697433237413
I49
tp430
s(I0
I1
I0
I0
I1
I12
I2
tp431
(F0.3946244603621462
I12
tp432
s(I0
I1
I0
I1
I2
I23
I3
tp433
(F-0.052228952589710255
I4
tp434
s(I0
I0
I0
I3
I2
I11
I2
tp435
(F0.5288365059599658
I1360
tp436
s(I0
I0
I1
I2
I2
I4
I1
tp437
(F0.6860726458777728
I20
tp438
s(I0
I0
I0
I0
I2
I21
I3
tp439
(F0.3474527072634671
I52
tp440
s(I0
I0
I1
I2
I1
I2
I3
tp441
(F0.3506796272756224
I108
tp442
s(I0
I0
I0
I1
I2
I5
I2
tp443
(F0.49177585907078786
I697
tp444
s(I0
I1
I0
I0
I1
I4
I3
tp445
(F0.4082420234901978
I29
tp446
s(I0
I1
I0
I2
I2
I21
I2
tp447
(F-0.08184605768958535
I3
tp448
s(I0
I0
I0
I1
I2
I29
I4
tp449
(F-0.13767976841075236
I205
tp450
s(I0
I1
I0
I0
I2
I22
I2
tp451
(F-0.030354175288939335
I2
tp452
s(I0
I0
I0
I2
I1
I9
I2
tp453
(F0.3071698449377927
I533
tp454
s(I0
I0
I0
I1
I2
I16
I2
tp455
(F0.5436012499705387
I702
tp456
s(I0
I1
I0
I1
I1
I17
I2
tp457
(F-0.0195
I2
tp458
s(I0
I1
I0
I2
I2
I24
I2
tp459
(F-0.03868883175804655
I7
tp460
s(I0
I3
I0
I3
I2
I19
I4
tp461
(F-0.028525000000000002
I2
tp462
s(I0
I1
I0
I3
I0
I0
I2
tp463
(F0.20692731045374557
I11
tp464
s(I0
I0
I1
I1
I1
I15
I3
tp465
(F-0.11476769792708663
I11
tp466
s(I0
I0
I0
I0
I1
I17
I3
tp467
(F-0.06598549444464614
I16
tp468
s(I0
I0
I0
I1
I1
I4
I2
tp469
(F0.4736146566251239
I3096
tp470
s(I0
I0
I1
I1
I1
I10
I4
tp471
(F-0.13866697231574765
I59
tp472
s(I0
I0
I1
I0
I1
I11
I1
tp473
(F0.4428257179590035
I18
tp474
s(I0
I1
I0
I3
I1
I9
I3
tp475
(F-0.09445002237779249
I5
tp476
s(I0
I1
I0
I2
I1
I4
I2
tp477
(F0.570988946677939
I43
tp478
s(I0
I0
I1
I3
I2
I7
I4
tp479
(F0.18520897102102507
I47
tp480
s(I0
I0
I1
I3
I1
I6
I2
tp481
(F0.3734004987325155
I39
tp482
s(I0
I1
I0
I1
I2
I8
I2
tp483
(F0.6192382657008556
I69
tp484
s(I0
I0
I1
I0
I2
I30
I4
tp485
(F-0.1551566498470183
I18
tp486
s(I0
I0
I0
I0
I2
I26
I2
tp487
(F-0.06921997320171233
I24
tp488
s(I0
I0
I0
I2
I2
I21
I2
tp489
(F0.46932359013298947
I38
tp490
s(I0
I1
I0
I3
I2
I18
I2
tp491
(F0.501736954139614
I5
tp492
s(I0
I0
I1
I2
I2
I11
I3
tp493
(F0.43165653399367987
I156
tp494
s(I0
I1
I1
I1
I2
I20
I1
tp495
(F-0.028104999867941474
I3
tp496
s(I0
I1
I0
I1
I2
I21
I2
tp497
(F0.05737558896534692
I10
tp498
s(I0
I0
I0
I3
I2
I13
I3
tp499
(F0.4374768433016527
I1338
tp500
s(I0
I0
I0
I0
I2
I23
I2
tp501
(F0.433869861486493
I35
tp502
s(I0
I0
I0
I1
I2
I27
I3
tp503
(F-0.09445557446591697
I31
tp504
s(I0
I1
I0
I0
I1
I6
I4
tp505
(F0.14906972597864002
I4667
tp506
s(I0
I1
I0
I2
I2
I19
I3
tp507
(F-0.1166464813577585
I6
tp508
s(I0
I0
I1
I2
I1
I17
I4
tp509
(F-0.15591959652035992
I10
tp510
s(I0
I0
I0
I2
I1
I15
I3
tp511
(F0.07176416936922249
I64
tp512
s(I0
I0
I1
I3
I2
I11
I4
tp513
(F0.13839825390682342
I110
tp514
s(I0
I0
I1
I1
I2
I17
I3
tp515
(F-0.027306141645740162
I6
tp516
s(I0
I2
I0
I2
I1
I7
I1
tp517
(F0.44512079791723774
I2
tp518
s(I0
I0
I0
I1
I1
I18
I4
tp519
(F-0.16195953302934177
I34
tp520
s(I0
I0
I0
I1
I1
I2
I3
tp521
(F0.34361781780076883
I2645
tp522
s(I0
I2
I0
I0
I2
I18
I4
tp523
(F-0.0195
I2
tp524
s(I0
I0
I1
I3
I2
I16
I3
tp525
(F-0.02995291586209522
I3
tp526
s(I0
I0
I0
I2
I2
I14
I3
tp527
(F0.4100736864293347
I1454
tp528
s(I0
I0
I1
I3
I2
I21
I4
tp529
(F-0.1718230494811736
I32
tp530
s(I0
I1
I0
I1
I2
I14
I3
tp531
(F0.40303869421480804
I9
tp532
s(I0
I0
I0
I0
I2
I12
I4
tp533
(F0.15486499103846196
I3607
tp534
s(I0
I1
I0
I1
I2
I30
I4
tp535
(F-0.054610766717552967
I5
tp536
s(I0
I1
I0
I2
I2
I7
I4
tp537
(F-0.06989883026744875
I10
tp538
s(I0
I0
I0
I0
I2
I28
I3
tp539
(F-0.09637194347825415
I29
tp540
s(I0
I0
I1
I2
I1
I13
I3
tp541
(F-0.11082577883112685
I8
tp542
s(I0
I0
I1
I0
I2
I12
I4
tp543
(F0.15136796068001673
I102
tp544
s(I0
I1
I0
I0
I1
I10
I4
tp545
(F0.07560524632752132
I949
tp546
s(I0
I2
I0
I1
I2
I27
I4
tp547
(F-0.047723405071793054
I5
tp548
s(I0
I1
I0
I0
I2
I15
I4
tp549
(F-0.11531334588058531
I33
tp550
s(I0
I1
I1
I0
I1
I1
I3
tp551
(F0.3496768135835068
I128
tp552
s(I0
I0
I0
I1
I2
I25
I4
tp553
(F-0.04369197407925513
I354
tp554
s(I0
I1
I1
I0
I1
I4
I4
tp555
(F0.18261603025231846
I1218
tp556
s(I0
I1
I1
I1
I2
I11
I4
tp557
(F-0.03166359948067113
I4
tp558
s(I0
I0
I1
I1
I1
I8
I3
tp559
(F0.15331829705952588
I20
tp560
s(I0
I1
I0
I0
I2
I12
I3
tp561
(F0.43120983315021366
I36
tp562
s(I0
I0
I1
I1
I2
I19
I2
tp563
(F0.5215494431785758
I12
tp564
s(I0
I0
I1
I3
I2
I25
I4
tp565
(F-0.17005827272589424
I16
tp566
s(I0
I0
I0
I0
I2
I8
I4
tp567
(F0.2090624590621637
I3994
tp568
s(I0
I1
I1
I3
I1
I17
I4
tp569
(F0.024389291987085348
I42
tp570
s(I0
I0
I0
I3
I2
I28
I4
tp571
(F-0.15840196876968143
I212
tp572
s(I0
I2
I0
I0
I2
I16
I1
tp573
(F0.7368177046790082
I3
tp574
s(I0
I0
I0
I0
I1
I5
I4
tp575
(F0.08292693649967357
I3188
tp576
s(I0
I0
I0
I2
I2
I12
I4
tp577
(F0.15796609484123203
I4509
tp578
s(I0
I0
I1
I2
I2
I4
I3
tp579
(F0.320242020294421
I61
tp580
s(I0
I0
I0
I2
I0
I0
I4
tp581
(F-0.19981001796207606
I10134
tp582
s(I0
I1
I0
I2
I2
I5
I1
tp583
(F0.8401249378451656
I36
tp584
s(I0
I1
I0
I0
I2
I6
I3
tp585
(F0.3829772844776716
I12
tp586
s(I0
I0
I1
I2
I1
I15
I2
tp587
(F-0.06904334126263906
I6
tp588
s(I0
I0
I1
I1
I2
I16
I3
tp589
(F0.27262832940354464
I14
tp590
s(I0
I1
I0
I0
I1
I4
I1
tp591
(F0.8028444833783952
I15
tp592
s(I0
I1
I0
I3
I2
I30
I4
tp593
(F-0.12033371402223253
I12
tp594
s(I0
I1
I0
I1
I1
I1
I1
tp595
(F0.7218587301088809
I75
tp596
s(I0
I1
I0
I2
I2
I8
I3
tp597
(F0.48399321974254306
I23
tp598
s(I0
I1
I0
I1
I1
I17
I4
tp599
(F-0.1212835455583105
I18
tp600
s(I0
I0
I0
I2
I1
I4
I3
tp601
(F0.3037364881632705
I2646
tp602
s(I0
I1
I0
I0
I2
I25
I4
tp603
(F-0.1265271425951146
I21
tp604
s(I0
I1
I0
I3
I2
I5
I2
tp605
(F0.7411304419180891
I2
tp606
s(I0
I0
I1
I1
I2
I8
I2
tp607
(F0.5053593686905716
I31
tp608
s(I0
I0
I0
I0
I1
I17
I1
tp609
(F0.3054754964098291
I5
tp610
s(I0
I0
I1
I1
I1
I10
I2
tp611
(F0.2440270032540715
I12
tp612
s(I0
I0
I1
I0
I1
I11
I3
tp613
(F-0.13579953146235876
I14
tp614
s(I0
I1
I0
I3
I1
I9
I1
tp615
(F0.6182840969714513
I27
tp616
s(I0
I1
I0
I2
I1
I4
I4
tp617
(F0.20449719054599097
I7320
tp618
s(I0
I0
I0
I0
I1
I1
I4
tp619
(F0.18407296366846237
I202
tp620
s(I0
I0
I0
I1
I1
I9
I3
tp621
(F0.17104772758158973
I696
tp622
s(I0
I1
I0
I2
I1
I1
I3
tp623
(F0.37340766506356055
I3254
tp624
s(I0
I0
I0
I0
I2
I10
I1
tp625
(F0.7007680698011477
I1996
tp626
s(I0
I1
I1
I2
I2
I11
I4
tp627
(F-0.10522605408843341
I4
tp628
s(I0
I0
I0
I2
I2
I5
I3
tp629
(F0.33464140284910393
I762
tp630
s(I0
I0
I1
I2
I2
I27
I2
tp631
(F-0.06678558859102905
I7
tp632
s(I0
I1
I0
I1
I2
I5
I3
tp633
(F0.4096486115003752
I35
tp634
s(I0
I1
I0
I3
I2
I18
I4
tp635
(F-0.05364836663151091
I45
tp636
s(I0
I1
I1
I1
I2
I20
I3
tp637
(F-0.028525000000000002
I2
tp638
s(I0
I1
I1
I2
I1
I14
I4
tp639
(F0.05184412999314239
I605
tp640
s(I0
I0
I0
I0
I2
I7
I3
tp641
(F0.3735990114839614
I2432
tp642
s(I0
I0
I1
I0
I2
I5
I2
tp643
(F0.4822371149941933
I8
tp644
s(I0
I0
I0
I3
I2
I13
I1
tp645
(F0.7573901321782303
I1136
tp646
s(I0
I1
I0
I3
I2
I23
I3
tp647
(F-0.050838999441079884
I9
tp648
s(I0
I0
I1
I2
I2
I6
I2
tp649
(F0.3497306605846439
I8
tp650
s(I0
I1
I0
I0
I2
I13
I1
tp651
(F0.781145297110877
I181
tp652
s(I0
I0
I0
I1
I2
I11
I2
tp653
(F0.5212228928191084
I3885
tp654
s(I0
I0
I0
I2
I2
I26
I4
tp655
(F-0.1018695835318135
I295
tp656
s(I0
I1
I0
I0
I2
I29
I4
tp657
(F-0.08126200354101656
I13
tp658
s(I0
I0
I0
I1
I2
I27
I1
tp659
(F0.39320946970556797
I4
tp660
s(I0
I1
I0
I2
I2
I19
I1
tp661
(F0.5782346605673419
I7
tp662
s(I0
I0
I0
I3
I1
I6
I1
tp663
(F0.6146931476152774
I880
tp664
s(I0
I0
I0
I2
I1
I15
I1
tp665
(F0.3299437580483512
I10
tp666
s(I0
I0
I0
I3
I2
I35
I4
tp667
(F-0.11731424073539166
I22
tp668
s(I0
I0
I1
I0
I1
I4
I2
tp669
(F0.45512290563701746
I74
tp670
s(I0
I0
I1
I0
I2
I14
I2
tp671
(F0.5241952770645041
I30
tp672
s(I0
I2
I0
I3
I1
I11
I4
tp673
(F-0.09470377131929669
I8
tp674
s(I0
I1
I0
I2
I1
I10
I2
tp675
(F0.4046584974880374
I17
tp676
s(I0
I0
I0
I1
I1
I2
I1
tp677
(F0.8431515378470026
I2413
tp678
s(I0
I0
I1
I0
I1
I9
I2
tp679
(F0.2523256025275533
I13
tp680
s(I0
I0
I0
I0
I1
I3
I1
tp681
(F0.8165146989324076
I1469
tp682
s(I0
I1
I1
I2
I1
I2
I4
tp683
(F0.23462380617098064
I386
tp684
s(I0
I0
I1
I1
I2
I10
I2
tp685
(F0.5131710249653283
I26
tp686
s(I0
I0
I0
I2
I2
I14
I1
tp687
(F0.710543739253275
I743
tp688
s(I0
I2
I0
I0
I2
I15
I1
tp689
(F-0.0195
I2
tp690
s(I0
I1
I0
I1
I2
I14
I1
tp691
(F0.7675364018232208
I59
tp692
s(I0
I0
I0
I0
I2
I12
I2
tp693
(F0.5192611282817099
I1804
tp694
s(I0
I0
I0
I1
I2
I34
I4
tp695
(F-0.09633924472885336
I18
tp696
s(I0
I0
I0
I2
I2
I30
I4
tp697
(F-0.1550153268104918
I171
tp698
s(I0
I0
I0
I0
I1
I14
I3
tp699
(F0.0898591301716878
I65
tp700
s(I0
I2
I0
I1
I1
I11
I4
tp701
(F-0.04802433457188518
I4
tp702
s(I0
I2
I0
I0
I1
I2
I4
tp703
(F-0.01
I1
tp704
s(I0
I0
I0
I1
I2
I2
I2
tp705
(F-0.028525000000000002
I2
tp706
s(I0
I0
I1
I0
I2
I11
I3
tp707
(F0.3787059991956427
I38
tp708
s(I0
I1
I0
I0
I1
I15
I1
tp709
(F0.46048367355260783
I3
tp710
s(I0
I1
I0
I2
I2
I10
I2
tp711
(F0.5924204113080958
I58
tp712
s(I0
I0
I1
I3
I1
I15
I4
tp713
(F-0.17094184596022816
I33
tp714
s(I0
I2
I0
I3
I2
I29
I3
tp715
(F-0.030788833391013112
I6
tp716
s(I0
I1
I0
I1
I1
I6
I1
tp717
(F0.6743780890772991
I43
tp718
s(I0
I0
I0
I2
I1
I6
I2
tp719
(F0.38907011281696496
I1164
tp720
s(I0
I1
I0
I0
I2
I31
I1
tp721
(F0.7411304419180891
I2
tp722
s(I0
I0
I0
I3
I1
I8
I2
tp723
(F0.33799241066937735
I495
tp724
s(I1
I0
I1
I1
I1
I0
I0
tp725
(F1.0
I1
tp726
s(I0
I0
I0
I1
I1
I11
I2
tp727
(F0.28466225179707066
I340
tp728
s(I0
I1
I0
I0
I2
I5
I2
tp729
(F0.6365142501278976
I19
tp730
s(I0
I0
I1
I0
I1
I2
I3
tp731
(F0.28879254410777006
I77
tp732
s(I0
I1
I0
I2
I1
I3
I2
tp733
(F0.6193789795390205
I70
tp734
s(I0
I0
I0
I2
I2
I7
I2
tp735
(F0.5191203606053238
I1133
tp736
s(I0
I1
I0
I1
I2
I7
I2
tp737
(F0.6075804294987505
I60
tp738
s(I0
I1
I0
I0
I1
I5
I2
tp739
(F0.4920353874485433
I31
tp740
s(I0
I0
I0
I0
I1
I5
I2
tp741
(F0.46751763699590343
I1141
tp742
s(I1
I1
I0
I1
I2
I0
I0
tp743
(F1.0
I1
tp744
s(I0
I0
I0
I0
I2
I5
I2
tp745
(F0.49066251432507674
I1385
tp746
s(I0
I0
I1
I1
I2
I12
I3
tp747
(F0.3585121047578816
I28
tp748
s(I0
I1
I0
I3
I2
I21
I2
tp749
(F-0.03505668652635464
I5
tp750
s(I0
I0
I1
I3
I1
I11
I4
tp751
(F-0.10548042585790025
I47
tp752
s(I0
I2
I0
I3
I2
I27
I4
tp753
(F-0.05098768002963589
I5
tp754
s(I0
I0
I0
I2
I2
I28
I1
tp755
(F-0.020249745642940603
I4
tp756
s(I0
I1
I0
I2
I2
I5
I3
tp757
(F-0.06668554110246765
I3
tp758
s(I0
I1
I0
I0
I2
I6
I1
tp759
(F0.7626116762858609
I27
tp760
s(I0
I2
I0
I2
I2
I31
I4
tp761
(F-0.10877200523198288
I4
tp762
s(I0
I1
I0
I1
I1
I1
I3
tp763
(F0.3686304487661095
I4871
tp764
s(I0
I0
I1
I0
I2
I9
I4
tp765
(F0.19288124774271315
I85
tp766
s(I0
I0
I1
I3
I1
I9
I3
tp767
(F-0.11911972522139265
I25
tp768
s(I0
I0
I0
I3
I1
I1
I1
tp769
(F0.7221217326785632
I3190
tp770
s(I0
I1
I0
I1
I1
I4
I4
tp771
(F0.1877000033235086
I9188
tp772
s(I0
I0
I0
I3
I2
I17
I2
tp773
(F0.515542200829416
I218
tp774
s(I0
I0
I0
I2
I1
I4
I1
tp775
(F0.7467690016269621
I2518
tp776
s(I0
I0
I0
I3
I1
I17
I2
tp777
(F0.17425127627524484
I4
tp778
s(I0
I1
I0
I0
I2
I25
I2
tp779
(F-0.043254801923721976
I7
tp780
s(I0
I0
I1
I1
I2
I24
I4
tp781
(F-0.16393552887460325
I40
tp782
s(I0
I1
I0
I2
I1
I17
I4
tp783
(F-0.10239781479860074
I24
tp784
s(I0
I0
I0
I1
I1
I9
I1
tp785
(F0.5005456673739556
I590
tp786
s(I0
I1
I0
I3
I1
I12
I4
tp787
(F0.06344324683463647
I384
tp788
s(I0
I1
I0
I2
I1
I1
I1
tp789
(F0.7481235290682904
I142
tp790
s(I0
I0
I1
I1
I1
I5
I4
tp791
(F0.06405330254720262
I261
tp792
s(I0
I0
I0
I0
I2
I10
I3
tp793
(F0.4013676652555457
I2827
tp794
s(I1
I0
I1
I2
I0
I0
I0
tp795
(F1.0
I1
tp796
s(I0
I0
I0
I2
I2
I5
I1
tp797
(F0.7027708158535809
I198
tp798
s(I0
I0
I0
I0
I1
I12
I2
tp799
(F0.25321650940283735
I321
tp800
s(I0
I0
I1
I3
I2
I28
I4
tp801
(F-0.16383614234665878
I24
tp802
s(I0
I1
I0
I1
I2
I5
I1
tp803
(F0.759603141835612
I16
tp804
s(I0
I2
I0
I2
I2
I19
I4
tp805
(F-0.060440941667125964
I13
tp806
s(I0
I0
I0
I1
I0
I0
I1
tp807
(F-0.11046112379457337
I16157
tp808
s(I0
I0
I1
I0
I2
I21
I1
tp809
(F0.6929184579644917
I2
tp810
s(I0
I0
I1
I3
I0
I0
I4
tp811
(F-0.19978093095108349
I995
tp812
s(I0
I1
I0
I3
I2
I7
I4
tp813
(F-0.09333481756524928
I14
tp814
s(I0
I0
I1
I2
I2
I22
I3
tp815
(F-0.07381742344014486
I8
tp816
s(I0
I0
I0
I0
I2
I7
I1
tp817
(F0.7413782520973535
I2416
tp818
s(I0
I0
I1
I0
I2
I5
I4
tp819
(F0.048603700367579994
I13
tp820
s(I0
I0
I1
I3
I1
I9
I1
tp821
(F0.5322008236618838
I25
tp822
s(I0
I1
I0
I1
I1
I8
I4
tp823
(F0.11265140681740869
I3884
tp824
s(I0
I0
I0
I2
I2
I26
I2
tp825
(F-0.09604961107673961
I8
tp826
s(I0
I0
I0
I3
I2
I8
I4
tp827
(F0.22263278371926867
I1826
tp828
s(I0
I0
I0
I3
I2
I24
I1
tp829
(F0.35593988833989426
I17
tp830
s(I0
I0
I0
I3
I1
I6
I3
tp831
(F0.2335005759231808
I543
tp832
s(I0
I0
I1
I3
I1
I4
I3
tp833
(F0.2386154040668284
I64
tp834
s(I0
I1
I1
I1
I1
I16
I4
tp835
(F0.025280556564587796
I141
tp836
s(I0
I0
I1
I3
I1
I4
I1
tp837
(F0.7028266385651323
I53
tp838
s(I0
I1
I0
I2
I2
I22
I4
tp839
(F-0.15358021831282775
I39
tp840
s(I0
I0
I0
I3
I1
I3
I4
tp841
(F0.13183601417925936
I3253
tp842
s(I0
I0
I0
I1
I2
I22
I1
tp843
(F0.5928088995760613
I59
tp844
s(I0
I0
I0
I2
I1
I10
I4
tp845
(F0.0044446086892623755
I1237
tp846
s(I0
I0
I1
I1
I1
I17
I1
tp847
(F0.31152686544796077
I2
tp848
s(I0
I0
I1
I1
I1
I1
I4
tp849
(F0.15068790409327526
I17
tp850
s(I0
I1
I0
I3
I1
I5
I2
tp851
(F0.5290277538763248
I13
tp852
s(I0
I0
I0
I0
I1
I3
I3
tp853
(F0.3339571046147008
I1715
tp854
s(I0
I0
I1
I3
I2
I5
I3
tp855
(F0.05115116537914712
I4
tp856
s(I0
I0
I0
I1
I1
I7
I4
tp857
(F0.12213195066087941
I4395
tp858
s(I0
I0
I1
I1
I2
I7
I3
tp859
(F0.3526082469797492
I43
tp860
s(I0
I0
I0
I0
I1
I14
I1
tp861
(F0.36641775699073487
I97
tp862
s(I0
I1
I0
I1
I2
I11
I4
tp863
(F0.220315031335886
I64
tp864
s(I0
I2
I0
I2
I2
I29
I3
tp865
(F-0.04796643617932456
I10
tp866
s(I0
I0
I0
I2
I2
I19
I1
tp867
(F0.6682088480656688
I90
tp868
s(I0
I0
I0
I0
I2
I25
I4
tp869
(F-0.06587854521547709
I242
tp870
s(I0
I0
I1
I0
I2
I11
I1
tp871
(F0.7906716091668458
I241
tp872
s(I0
I1
I0
I1
I1
I10
I1
tp873
(F0.5775867132114957
I35
tp874
s(I0
I1
I0
I2
I2
I10
I4
tp875
(F0.18705757071548137
I16
tp876
s(I0
I0
I1
I3
I1
I15
I2
tp877
(F-0.08013192109448421
I3
tp878
s(I0
I0
I1
I2
I1
I6
I1
tp879
(F0.607967305576766
I50
tp880
s(I0
I1
I0
I1
I1
I6
I3
tp881
(F0.3984090119058451
I21
tp882
s(I0
I0
I0
I2
I1
I6
I4
tp883
(F0.05851915194746277
I3958
tp884
s(I0
I0
I0
I3
I2
I26
I4
tp885
(F-0.14309172403853018
I243
tp886
s(I0
I0
I0
I3
I2
I14
I2
tp887
(F0.5307707858582528
I1946
tp888
s(I0
I1
I1
I0
I1
I11
I4
tp889
(F0.07577089216126266
I1857
tp890
s(I0
I0
I0
I1
I1
I11
I4
tp891
(F0.050115358613230784
I1364
tp892
s(I0
I0
I1
I0
I1
I2
I1
tp893
(F0.8259007097602773
I112
tp894
s(I0
I0
I1
I3
I2
I14
I2
tp895
(F0.5188663958472708
I28
tp896
s(I0
I0
I1
I1
I1
I3
I1
tp897
(F0.8231413954062473
I145
tp898
s(I0
I1
I0
I3
I1
I2
I4
tp899
(F0.2813344066552118
I4810
tp900
s(I0
I0
I0
I3
I2
I5
I2
tp901
(F0.5459313725360485
I265
tp902
s(I0
I1
I0
I1
I2
I7
I4
tp903
(F0.290382728012674
I33
tp904
s(I0
I0
I0
I1
I2
I32
I4
tp905
(F-0.147285105991074
I49
tp906
s(I0
I1
I1
I2
I2
I18
I4
tp907
(F-0.1298564008951748
I6
tp908
s(I0
I0
I1
I0
I2
I34
I4
tp909
(F-0.09789340188129646
I9
tp910
s(I0
I1
I0
I3
I2
I5
I3
tp911
(F-0.06405936573638682
I2
tp912
s(I0
I0
I1
I2
I2
I20
I2
tp913
(F0.3654816541457483
I8
tp914
s(I0
I0
I0
I0
I2
I5
I4
tp915
(F0.24443659994914424
I1008
tp916
s(I0
I0
I1
I1
I2
I12
I1
tp917
(F0.71201629586531
I78
tp918
s(I0
I0
I1
I0
I2
I18
I1
tp919
(F0.7219955606228792
I20
tp920
s(I0
I1
I1
I2
I1
I7
I4
tp921
(F0.1546798288241362
I2811
tp922
s(I0
I0
I0
I2
I2
I28
I3
tp923
(F-0.09530275809728718
I20
tp924
s(I0
I1
I1
I1
I2
I13
I4
tp925
(F-0.12230272711596611
I2
tp926
s(I0
I1
I0
I1
I2
I28
I3
tp927
(F-0.0669654893822266
I13
tp928
s(I0
I0
I0
I3
I2
I6
I4
tp929
(F0.2348579130677191
I711
tp930
s(I0
I1
I0
I3
I2
I6
I2
tp931
(F0.6054937801319693
I2
tp932
s(I0
I0
I1
I2
I2
I15
I1
tp933
(F0.7444888473326162
I96
tp934
s(I0
I1
I0
I1
I2
I25
I4
tp935
(F-0.10460277096195676
I32
tp936
s(I0
I2
I0
I1
I1
I14
I4
tp937
(F-0.06456619567682353
I9
tp938
s(I0
I0
I1
I2
I2
I23
I3
tp939
(F-0.10940274890366435
I3
tp940
s(I0
I0
I0
I3
I1
I1
I3
tp941
(F0.27716539694841114
I2006
tp942
s(I0
I1
I0
I1
I1
I4
I2
tp943
(F0.5321342345387431
I38
tp944
s(I0
I1
I0
I2
I2
I24
I4
tp945
(F-0.12257196675840824
I58
tp946
s(I0
I1
I1
I0
I1
I15
I4
tp947
(F0.034086510475096365
I298
tp948
s(I0
I1
I0
I0
I0
I0
I2
tp949
(F0.2808628426964812
I56
tp950
s(I0
I0
I1
I0
I2
I25
I4
tp951
(F-0.1688891150236635
I43
tp952
s(I1
I0
I0
I0
I1
I0
I0
tp953
(F1.0
I1
tp954
s(I0
I0
I0
I2
I2
I32
I2
tp955
(F-0.045815258841006734
I8
tp956
s(I0
I1
I0
I2
I1
I2
I2
tp957
(F0.6643432494697907
I98
tp958
s(I0
I0
I1
I3
I2
I7
I2
tp959
(F0.4081043232379115
I15
tp960
s(I0
I0
I1
I1
I2
I21
I1
tp961
(F-0.0195
I2
tp962
s(I0
I0
I1
I1
I1
I5
I2
tp963
(F0.43248255978461997
I79
tp964
s(I0
I0
I1
I1
I2
I5
I2
tp965
(F0.4788531578086737
I3
tp966
s(I0
I0
I0
I0
I1
I12
I4
tp967
(F-0.038873191166991554
I469
tp968
s(I0
I0
I0
I1
I0
I0
I3
tp969
(F-0.19869072929317563
I13565
tp970
s(I0
I0
I1
I0
I2
I21
I3
tp971
(F-0.0943164630844547
I9
tp972
s(I0
I1
I0
I3
I2
I7
I2
tp973
(F0.5722726200448636
I7
tp974
s(I0
I1
I0
I1
I2
I21
I4
tp975
(F-0.1504551230889539
I33
tp976
s(I0
I0
I1
I0
I2
I16
I4
tp977
(F0.0811726743309939
I87
tp978
s(I0
I0
I0
I0
I2
I23
I4
tp979
(F-0.009222438686504658
I357
tp980
s(I0
I2
I0
I1
I2
I7
I4
tp981
(F-0.08267373127642484
I2
tp982
s(I0
I1
I1
I2
I1
I17
I4
tp983
(F0.02080447311520979
I59
tp984
s(I0
I0
I1
I2
I1
I1
I1
tp985
(F0.667655305788777
I99
tp986
s(I0
I0
I0
I3
I2
I24
I3
tp987
(F-0.10838445968261784
I37
tp988
s(I0
I1
I0
I0
I2
I16
I3
tp989
(F0.38276984551594795
I10
tp990
s(I0
I0
I0
I3
I1
I3
I2
tp991
(F0.5509868569621504
I1664
tp992
s(I0
I0
I0
I1
I2
I22
I3
tp993
(F0.32618845145342434
I62
tp994
s(I0
I2
I1
I3
I1
I8
I4
tp995
(F-0.01
I1
tp996
s(I0
I0
I1
I1
I1
I12
I1
tp997
(F0.4262237820356473
I12
tp998
s(I0
I1
I0
I3
I1
I11
I2
tp999
(F0.443060953234052
I18
tp1000
s(I0
I0
I1
I3
I2
I5
I1
tp1001
(F0.6692690653878729
I7
tp1002
s(I0
I0
I1
I0
I0
I0
I1
tp1003
(F-0.1395776904120142
I756
tp1004
s(I0
I0
I1
I1
I2
I7
I1
tp1005
(F0.7330291803985686
I86
tp1006
s(I0
I1
I1
I0
I2
I12
I1
tp1007
(F-0.0195
I2
tp1008
s(I0
I0
I0
I2
I2
I19
I3
tp1009
(F0.4078633708278807
I130
tp1010
s(I0
I0
I1
I2
I2
I24
I4
tp1011
(F-0.16697418088690458
I41
tp1012
s(I0
I1
I0
I1
I2
I27
I3
tp1013
(F-0.04680233434352702
I8
tp1014
s(I0
I2
I0
I2
I2
I22
I4
tp1015
(F-0.14866764282198644
I3
tp1016
s(I0
I0
I0
I3
I2
I15
I2
tp1017
(F0.5880283060887326
I611
tp1018
s(I0
I0
I1
I2
I2
I8
I1
tp1019
(F0.7135361878476827
I271
tp1020
s(I0
I1
I0
I0
I2
I15
I2
tp1021
(F0.5742228983314396
I59
tp1022
s(I0
I0
I1
I2
I1
I6
I3
tp1023
(F0.2472726249544144
I58
tp1024
s(I0
I1
I0
I0
I1
I16
I4
tp1025
(F-0.0978734323459536
I21
tp1026
s(I0
I0
I0
I1
I2
I25
I2
tp1027
(F-0.08074691040325796
I39
tp1028
s(I0
I0
I1
I2
I1
I3
I4
tp1029
(F0.11000517333781513
I156
tp1030
s(I0
I1
I0
I1
I1
I13
I4
tp1031
(F0.04569237309378899
I331
tp1032
s(I0
I0
I0
I3
I2
I26
I2
tp1033
(F-0.07308062984584049
I34
tp1034
s(I0
I1
I0
I2
I2
I17
I2
tp1035
(F0.5348223579135346
I17
tp1036
s(I0
I1
I0
I0
I2
I18
I2
tp1037
(F0.5566456166056145
I10
tp1038
s(I0
I0
I0
I2
I1
I13
I2
tp1039
(F0.22320465104029016
I104
tp1040
s(I0
I0
I0
I1
I2
I20
I2
tp1041
(F0.4753760367436415
I61
tp1042
s(I0
I0
I0
I0
I2
I20
I1
tp1043
(F0.6743356524109531
I87
tp1044
s(I0
I2
I0
I3
I1
I12
I4
tp1045
(F-0.08019717449118789
I6
tp1046
s(I0
I0
I1
I1
I1
I3
I3
tp1047
(F0.283965840545975
I132
tp1048
s(I0
I0
I1
I0
I1
I7
I4
tp1049
(F-0.050191276231871765
I118
tp1050
s(I0
I1
I0
I0
I2
I35
I4
tp1051
(F-0.03425946991580832
I8
tp1052
s(I0
I1
I0
I3
I1
I5
I3
tp1053
(F0.4214605703938945
I18
tp1054
s(I0
I0
I1
I2
I2
I20
I4
tp1055
(F-0.047836552226637144
I46
tp1056
s(I0
I0
I1
I0
I2
I18
I3
tp1057
(F-0.10127508513148464
I20
tp1058
s(I0
I1
I0
I1
I2
I12
I2
tp1059
(F0.590132402815969
I67
tp1060
s(I0
I0
I1
I1
I2
I9
I4
tp1061
(F0.15449000347622996
I115
tp1062
s(I0
I0
I0
I0
I2
I30
I2
tp1063
(F-0.06368582936493282
I14
tp1064
s(I0
I0
I1
I2
I1
I15
I4
tp1065
(F-0.16636507986330085
I39
tp1066
s(I0
I0
I0
I2
I2
I17
I2
tp1067
(F0.517013349843044
I384
tp1068
s(I0
I2
I0
I1
I2
I21
I4
tp1069
(F-0.11755706478708275
I7
tp1070
s(I0
I0
I1
I2
I2
I15
I3
tp1071
(F0.2078509614174429
I18
tp1072
s(I0
I1
I1
I1
I1
I4
I2
tp1073
(F0.5277001108671063
I3
tp1074
s(I0
I0
I1
I3
I1
I6
I4
tp1075
(F-0.007752088990848184
I142
tp1076
s(I0
I0
I1
I2
I2
I10
I4
tp1077
(F0.18925058545786108
I348
tp1078
s(I0
I1
I0
I0
I2
I9
I3
tp1079
(F0.4671756052522368
I55
tp1080
s(I0
I0
I0
I1
I2
I15
I4
tp1081
(F0.11866739833025924
I3686
tp1082
s(I0
I0
I0
I1
I2
I31
I3
tp1083
(F-0.06294323033253071
I3
tp1084
s(I0
I1
I1
I0
I1
I2
I1
tp1085
(F-0.0195
I2
tp1086
s(I0
I0
I0
I2
I2
I32
I4
tp1087
(F-0.14613504399145066
I97
tp1088
s(I0
I0
I1
I1
I2
I21
I3
tp1089
(F-0.028104999867941474
I3
tp1090
s(I0
I0
I1
I0
I1
I16
I3
tp1091
(F-0.11118134249171574
I5
tp1092
s(I0
I0
I1
I1
I2
I5
I4
tp1093
(F0.2090790130124852
I13
tp1094
s(I0
I1
I0
I2
I1
I14
I4
tp1095
(F0.015820232023209146
I169
tp1096
s(I0
I1
I1
I0
I2
I27
I4
tp1097
(F-0.07272276296671794
I4
tp1098
s(I0
I1
I0
I3
I1
I7
I4
tp1099
(F0.16247019913612937
I3092
tp1100
s(I0
I1
I1
I0
I2
I11
I1
tp1101
(F0.688020891856974
I2
tp1102
s(I0
I0
I1
I0
I2
I16
I2
tp1103
(F0.5238412389345761
I12
tp1104
s(I0
I0
I1
I2
I2
I6
I4
tp1105
(F0.23611678618658954
I210
tp1106
s(I0
I1
I0
I1
I2
I18
I3
tp1107
(F0.29566255475290926
I15
tp1108
s(I0
I0
I0
I1
I2
I11
I4
tp1109
(F0.1740530721041658
I5493
tp1110
s(I0
I1
I0
I3
I2
I8
I4
tp1111
(F0.16492939961212247
I16
tp1112
s(I0
I0
I0
I0
I2
I16
I3
tp1113
(F0.4205635157539904
I620
tp1114
s(I0
I0
I1
I2
I1
I1
I3
tp1115
(F0.3353896639424587
I111
tp1116
s(I0
I1
I0
I3
I2
I24
I3
tp1117
(F-0.09856325780576808
I3
tp1118
s(I0
I1
I0
I0
I1
I11
I3
tp1119
(F0.20504166851611846
I12
tp1120
s(I0
I1
I1
I1
I1
I5
I4
tp1121
(F0.191589867429971
I2117
tp1122
s(I0
I1
I0
I2
I2
I29
I4
tp1123
(F-0.10134553306972716
I19
tp1124
s(I0
I0
I0
I3
I1
I12
I4
tp1125
(F-0.0834423138471358
I397
tp1126
s(I0
I2
I0
I1
I2
I17
I4
tp1127
(F-0.02925230305635059
I3
tp1128
s(I0
I1
I0
I2
I1
I10
I4
tp1129
(F0.09105131612855134
I1381
tp1130
s(I0
I0
I1
I1
I1
I12
I3
tp1131
(F-0.13315219028684416
I12
tp1132
s(I0
I0
I1
I0
I1
I9
I4
tp1133
(F-0.11152327385406652
I84
tp1134
s(I0
I1
I0
I3
I1
I11
I4
tp1135
(F0.08713921956221778
I648
tp1136
s(I0
I1
I0
I3
I1
I14
I3
tp1137
(F-0.10759005322910463
I2
tp1138
s(I0
I0
I1
I1
I2
I23
I2
tp1139
(F-0.07874940383684549
I2
tp1140
s(I0
I0
I1
I0
I0
I0
I3
tp1141
(F-0.19650260461079844
I1589
tp1142
s(I0
I1
I0
I3
I2
I12
I4
tp1143
(F0.0653123817182605
I27
tp1144
s(I0
I1
I0
I3
I1
I17
I4
tp1145
(F-0.13580765357983687
I20
tp1146
s(I0
I0
I0
I3
I2
I15
I4
tp1147
(F0.12092327151493774
I1725
tp1148
s(I0
I0
I1
I2
I2
I8
I3
tp1149
(F0.4047801612985906
I129
tp1150
s(I0
I1
I0
I1
I2
I16
I4
tp1151
(F0.16096078007721593
I55
tp1152
s(I0
I0
I0
I1
I2
I9
I1
tp1153
(F0.7695318315772318
I2990
tp1154
s(I0
I1
I1
I3
I2
I8
I4
tp1155
(F-0.11634312764424717
I3
tp1156
s(I0
I0
I0
I3
I2
I10
I3
tp1157
(F0.4244160894492607
I1943
tp1158
s(I0
I2
I0
I0
I1
I12
I4
tp1159
(F-0.05483661064408405
I2
tp1160
s(I0
I0
I0
I0
I2
I18
I4
tp1161
(F0.0788601554223475
I1055
tp1162
s(I0
I0
I1
I2
I1
I3
I2
tp1163
(F0.5363501099523169
I76
tp1164
s(I0
I1
I0
I2
I2
I17
I4
tp1165
(F0.0008594454995009063
I32
tp1166
s(I0
I0
I0
I3
I1
I8
I4
tp1167
(F0.04166047294364789
I1586
tp1168
s(I0
I0
I0
I1
I2
I4
I3
tp1169
(F0.32420368158910073
I743
tp1170
s(I0
I0
I0
I2
I1
I13
I4
tp1171
(F-0.08844679888874218
I457
tp1172
s(I0
I0
I0
I3
I2
I21
I4
tp1173
(F0.012134915045634713
I422
tp1174
s(I0
I1
I1
I1
I0
I0
I4
tp1175
(F-0.043953238829585545
I34
tp1176
s(I0
I0
I0
I2
I1
I8
I3
tp1177
(F0.2072671921529377
I1059
tp1178
s(I0
I1
I0
I0
I2
I5
I3
tp1179
(F0.3752474592748512
I11
tp1180
s(I0
I0
I0
I1
I1
I16
I1
tp1181
(F0.33222901076881073
I24
tp1182
s(I0
I1
I0
I2
I1
I8
I1
tp1183
(F0.6549724023567747
I51
tp1184
s(I0
I0
I1
I1
I1
I14
I2
tp1185
(F-0.0195
I2
tp1186
s(I0
I1
I0
I3
I1
I5
I1
tp1187
(F0.6989285124512722
I12
tp1188
s(I0
I0
I0
I1
I2
I35
I4
tp1189
(F-0.13527199039605184
I7
tp1190
s(I0
I1
I0
I2
I1
I5
I3
tp1191
(F0.4013057745039089
I22
tp1192
s(I0
I1
I0
I1
I2
I12
I4
tp1193
(F0.21804376385140845
I109
tp1194
s(I0
I0
I0
I0
I2
I14
I1
tp1195
(F0.7142019085770123
I1181
tp1196
s(I0
I0
I0
I1
I2
I32
I1
tp1197
(F0.48578565293751325
I5
tp1198
s(I0
I1
I0
I3
I2
I14
I1
tp1199
(F0.8334715860350158
I75
tp1200
s(I0
I0
I0
I0
I2
I30
I4
tp1201
(F-0.15239731202620804
I142
tp1202
s(I0
I1
I1
I3
I1
I11
I4
tp1203
(F0.09412779326013043
I1978
tp1204
s(I0
I2
I1
I0
I1
I12
I4
tp1205
(F-0.04931978562626014
I9
tp1206
s(I0
I1
I1
I1
I2
I16
I3
tp1207
(F-0.0195
I2
tp1208
s(I0
I0
I0
I0
I2
I27
I3
tp1209
(F-0.10525252174334841
I38
tp1210
s(I0
I0
I1
I2
I1
I8
I3
tp1211
(F0.20004601746606868
I43
tp1212
s(I0
I0
I1
I0
I2
I9
I2
tp1213
(F0.5052129181444714
I53
tp1214
s(I0
I1
I0
I0
I1
I9
I2
tp1215
(F0.4417614919085881
I34
tp1216
s(I0
I1
I0
I3
I2
I19
I3
tp1217
(F-0.05535746406121112
I7
tp1218
s(I0
I0
I1
I2
I2
I10
I2
tp1219
(F0.5478516764186564
I183
tp1220
s(I0
I1
I0
I0
I2
I9
I1
tp1221
(F0.775725431695613
I197
tp1222
s(I0
I0
I0
I1
I2
I15
I2
tp1223
(F0.5267984320177594
I1807
tp1224
s(I0
I0
I0
I3
I2
I17
I4
tp1225
(F0.09656513028662693
I1151
tp1226
s(I0
I1
I0
I2
I2
I15
I2
tp1227
(F0.5785042389504389
I45
tp1228
s(I0
I0
I0
I2
I1
I3
I2
tp1229
(F0.54277168867406
I2440
tp1230
s(I0
I0
I0
I3
I1
I10
I1
tp1231
(F0.44556879856493303
I303
tp1232
s(I0
I1
I1
I0
I1
I2
I3
tp1233
(F0.42453415237478553
I7
tp1234
s(I0
I1
I1
I1
I1
I11
I4
tp1235
(F0.08891969594854035
I1903
tp1236
s(I0
I1
I0
I0
I2
I32
I4
tp1237
(F-0.050237277939524184
I9
tp1238
s(I0
I1
I1
I0
I1
I18
I4
tp1239
(F0.009123972049087242
I16
tp1240
s(I0
I0
I0
I2
I2
I11
I1
tp1241
(F0.7205806105764962
I1670
tp1242
s(I0
I1
I0
I3
I1
I12
I2
tp1243
(F0.37379671981890583
I10
tp1244
s(I0
I0
I0
I1
I1
I14
I2
tp1245
(F0.21279203286503537
I89
tp1246
s(I1
I0
I1
I0
I2
I0
I0
tp1247
(F1.0
I1
tp1248
s(I0
I1
I1
I3
I1
I7
I4
tp1249
(F0.15411189393933722
I2545
tp1250
s(I0
I0
I1
I0
I2
I32
I3
tp1251
(F-0.0195
I2
tp1252
s(I0
I0
I0
I0
I1
I7
I1
tp1253
(F0.5656952797938869
I657
tp1254
s(I0
I0
I1
I1
I2
I14
I2
tp1255
(F0.4961931524923162
I7
tp1256
s(I0
I0
I0
I2
I2
I10
I1
tp1257
(F0.6939445524919327
I1357
tp1258
s(I0
I0
I1
I3
I2
I17
I2
tp1259
(F0.14986636403782244
I14
tp1260
s(I0
I1
I0
I1
I2
I18
I1
tp1261
(F0.7195261664483976
I35
tp1262
s(I0
I0
I0
I3
I2
I8
I2
tp1263
(F0.5374004510161405
I1900
tp1264
s(I0
I1
I0
I3
I2
I8
I2
tp1265
(F0.5738115225422203
I18
tp1266
s(I0
I1
I0
I1
I2
I34
I4
tp1267
(F-0.036631373532085565
I5
tp1268
s(I0
I0
I0
I0
I2
I16
I1
tp1269
(F0.7163482423343376
I455
tp1270
s(I0
I0
I1
I0
I2
I31
I4
tp1271
(F-0.15166215599426358
I19
tp1272
s(I0
I1
I0
I2
I2
I6
I1
tp1273
(F0.7804984219546296
I14
tp1274
s(I0
I0
I0
I0
I2
I32
I4
tp1275
(F-0.14491603556557212
I77
tp1276
s(I0
I0
I0
I1
I2
I6
I2
tp1277
(F0.47941332218816723
I1250
tp1278
s(I0
I0
I1
I2
I1
I10
I4
tp1279
(F-0.069033948324636
I66
tp1280
s(I0
I0
I1
I0
I2
I15
I3
tp1281
(F-0.04655216114758493
I9
tp1282
s(I0
I1
I0
I0
I1
I11
I1
tp1283
(F0.5833249187483587
I25
tp1284
s(I0
I1
I0
I1
I1
I2
I1
tp1285
(F0.8691227292871715
I40
tp1286
s(I0
I0
I0
I3
I2
I19
I1
tp1287
(F0.7210582761022573
I81
tp1288
s(I0
I0
I0
I2
I1
I10
I2
tp1289
(F0.2986689469519274
I375
tp1290
s(I0
I2
I0
I3
I2
I28
I4
tp1291
(F-0.03709875
I2
tp1292
s(I0
I0
I0
I3
I1
I12
I2
tp1293
(F0.2630497058319803
I148
tp1294
s(I0
I1
I0
I2
I2
I27
I4
tp1295
(F-0.14790201703486566
I23
tp1296
s(I1
I0
I1
I0
I0
I0
I0
tp1297
(F1.0
I1
tp1298
s(I0
I2
I0
I2
I1
I10
I4
tp1299
(F-0.04764932245359322
I2
tp1300
s(I0
I0
I0
I1
I1
I7
I2
tp1301
(F0.3875154028388713
I1694
tp1302
s(I0
I0
I1
I0
I1
I14
I3
tp1303
(F-0.11259941839791851
I13
tp1304
s(I0
I1
I0
I2
I1
I7
I2
tp1305
(F0.4816939585418154
I23
tp1306
s(I0
I1
I0
I3
I2
I13
I1
tp1307
(F0.7466714651320812
I61
tp1308
s(I0
I0
I1
I3
I2
I10
I4
tp1309
(F0.17236044189649607
I94
tp1310
s(I0
I0
I0
I2
I2
I3
I2
tp1311
(F0.22680308720714487
I19
tp1312
s(I0
I1
I0
I1
I2
I11
I2
tp1313
(F0.5993781398865468
I150
tp1314
s(I0
I0
I0
I0
I2
I9
I1
tp1315
(F0.7316605168849168
I3646
tp1316
s(I0
I0
I1
I0
I2
I27
I4
tp1317
(F-0.16426868490431215
I53
tp1318
s(I0
I0
I0
I0
I1
I9
I2
tp1319
(F0.30807078732633114
I540
tp1320
s(I0
I0
I0
I0
I2
I25
I2
tp1321
(F-0.06368945940306983
I35
tp1322
s(I0
I2
I0
I0
I2
I17
I4
tp1323
(F-0.021945450922917744
I6
tp1324
s(I0
I4
I0
I3
I2
I17
I4
tp1325
(F-0.15112127893454294
I3
tp1326
s(I0
I0
I0
I1
I2
I9
I3
tp1327
(F0.39478944909419406
I3692
tp1328
s(I0
I1
I1
I3
I2
I12
I1
tp1329
(F0.819961129305041
I3
tp1330
s(I0
I0
I0
I2
I2
I24
I1
tp1331
(F0.12895941183013876
I10
tp1332
s(I0
I0
I0
I3
I2
I10
I1
tp1333
(F0.7856491222872822
I1782
tp1334
s(I0
I0
I1
I2
I2
I3
I4
tp1335
(F0.2630480088417471
I7
tp1336
s(I0
I2
I0
I3
I2
I16
I4
tp1337
(F-0.047487516548518974
I11
tp1338
s(I0
I1
I0
I2
I2
I4
I4
tp1339
(F-0.09528467243321181
I2
tp1340
s(I0
I0
I0
I1
I2
I4
I1
tp1341
(F0.691804302735407
I198
tp1342
s(I0
I0
I0
I2
I2
I12
I2
tp1343
(F0.5430485237623653
I1611
tp1344
s(I0
I1
I0
I0
I1
I5
I4
tp1345
(F0.18711502233221408
I6217
tp1346
s(I0
I1
I0
I2
I2
I20
I1
tp1347
(F0.0010179138588199514
I2
tp1348
s(I0
I0
I0
I3
I1
I5
I1
tp1349
(F0.7047728233649345
I1151
tp1350
s(I0
I1
I1
I1
I1
I2
I2
tp1351
(F0.5264353873095186
I5
tp1352
s(I0
I0
I0
I3
I2
I21
I2
tp1353
(F0.4979238500181657
I31
tp1354
s(I0
I0
I0
I2
I1
I8
I1
tp1355
(F0.5484120735821771
I1029
tp1356
s(I0
I1
I0
I1
I1
I16
I1
tp1357
(F0.5277323309533534
I2
tp1358
s(I0
I0
I1
I3
I2
I14
I4
tp1359
(F0.09867024164563092
I93
tp1360
s(I0
I0
I0
I1
I1
I16
I3
tp1361
(F0.06138310169652851
I43
tp1362
s(I0
I1
I0
I2
I1
I8
I3
tp1363
(F0.35383798858778387
I29
tp1364
s(I0
I0
I0
I0
I1
I16
I4
tp1365
(F-0.16881860097208132
I156
tp1366
s(I0
I0
I0
I1
I1
I5
I1
tp1367
(F0.7048620557760219
I1437
tp1368
s(I0
I0
I1
I0
I1
I12
I4
tp1369
(F-0.17544144175552123
I56
tp1370
s(I0
I1
I0
I2
I1
I5
I1
tp1371
(F0.7620113523735423
I36
tp1372
s(I0
I2
I0
I0
I2
I13
I4
tp1373
(F-0.01
I1
tp1374
s(I0
I0
I0
I0
I2
I14
I3
tp1375
(F0.41240654267585414
I1163
tp1376
s(I0
I1
I0
I3
I2
I14
I3
tp1377
(F0.17684044392057252
I14
tp1378
s(I0
I0
I1
I2
I2
I31
I4
tp1379
(F-0.14638066778738512
I29
tp1380
s(I0
I1
I0
I1
I2
I9
I1
tp1381
(F0.7625839408490551
I153
tp1382
s(I0
I0
I0
I0
I2
I11
I4
tp1383
(F0.17371203561967694
I3984
tp1384
s(I0
I0
I0
I0
I1
I8
I2
tp1385
(F0.344354981802042
I857
tp1386
s(I0
I0
I0
I0
I2
I27
I1
tp1387
(F0.5926401535829773
I16
tp1388
s(I0
I0
I1
I2
I1
I8
I1
tp1389
(F0.49991248866276244
I45
tp1390
s(I0
I1
I0
I0
I1
I9
I4
tp1391
(F0.1043504862891346
I1467
tp1392
s(I0
I1
I0
I3
I2
I19
I1
tp1393
(F-0.028104999867941474
I3
tp1394
s(I0
I0
I1
I3
I1
I13
I1
tp1395
(F0.39919415814734804
I9
tp1396
s(I0
I0
I1
I0
I2
I4
I3
tp1397
(F0.30803911201799083
I11
tp1398
s(I0
I2
I0
I1
I2
I24
I4
tp1399
(F-0.17181464590520382
I3
tp1400
s(I0
I1
I0
I0
I2
I12
I4
tp1401
(F0.1431932426501936
I37
tp1402
s(I0
I1
I1
I3
I2
I13
I4
tp1403
(F-0.066807120200775
I8
tp1404
s(I0
I1
I1
I0
I0
I0
I3
tp1405
(F0.09102612595456822
I11
tp1406
s(I0
I0
I0
I3
I1
I10
I3
tp1407
(F0.16105169715935697
I211
tp1408
s(I0
I1
I0
I0
I2
I28
I1
tp1409
(F0.7842946162450101
I4
tp1410
s(I0
I0
I0
I1
I2
I26
I4
tp1411
(F-0.09657726790170805
I252
tp1412
s(I0
I2
I1
I1
I1
I13
I4
tp1413
(F-0.01
I1
tp1414
s(I0
I1
I0
I1
I2
I25
I2
tp1415
(F-0.053135949288273726
I6
tp1416
s(I0
I0
I1
I3
I2
I12
I1
tp1417
(F0.7737889810297305
I147
tp1418
s(I0
I0
I1
I0
I1
I5
I3
tp1419
(F0.21043232836980696
I40
tp1420
s(I0
I0
I0
I0
I1
I7
I3
tp1421
(F0.22358647297108397
I700
tp1422
s(I0
I0
I1
I1
I2
I14
I4
tp1423
(F0.10206487276425075
I117
tp1424
s(I0
I0
I0
I0
I1
I2
I4
tp1425
(F0.1281424139653264
I2647
tp1426
s(I0
I1
I1
I0
I2
I16
I4
tp1427
(F-0.1375527715218862
I10
tp1428
s(I0
I1
I1
I2
I1
I1
I3
tp1429
(F0.34784016000714923
I185
tp1430
s(I0
I0
I1
I1
I2
I11
I3
tp1431
(F0.37823653946068975
I40
tp1432
s(I0
I0
I0
I2
I2
I15
I4
tp1433
(F0.11517774293002907
I3115
tp1434
s(I0
I1
I1
I3
I2
I17
I4
tp1435
(F-0.05488206686552381
I3
tp1436
s(I0
I1
I0
I2
I2
I6
I3
tp1437
(F0.27393947538129926
I12
tp1438
s(I0
I0
I0
I1
I2
I6
I4
tp1439
(F0.2307519624134309
I2957
tp1440
s(I0
I0
I1
I0
I2
I15
I1
tp1441
(F0.7460532159798848
I171
tp1442
s(I0
I1
I0
I3
I2
I29
I4
tp1443
(F-0.10562287900425713
I23
tp1444
s(I0
I0
I1
I3
I1
I3
I2
tp1445
(F0.48509764875660194
I107
tp1446
s(I0
I1
I0
I1
I1
I2
I3
tp1447
(F0.4332637004546639
I341
tp1448
s(I0
I0
I0
I3
I2
I19
I3
tp1449
(F0.4125779743493816
I91
tp1450
s(I0
I0
I0
I2
I2
I22
I1
tp1451
(F0.33412601466863034
I28
tp1452
s(I0
I1
I0
I1
I1
I18
I4
tp1453
(F-0.14643331887165809
I9
tp1454
s(I0
I1
I0
I0
I2
I30
I4
tp1455
(F-0.057903636283359386
I6
tp1456
s(I0
I0
I0
I2
I2
I30
I2
tp1457
(F-0.0665719210757834
I15
tp1458
s(I1
I0
I0
I1
I2
I0
I0
tp1459
(F1.0
I1
tp1460
s(I0
I0
I1
I0
I1
I14
I1
tp1461
(F0.35970307320680917
I8
tp1462
s(I0
I1
I0
I2
I1
I7
I4
tp1463
(F0.14907792496372121
I4712
tp1464
s(I0
I0
I1
I3
I2
I10
I2
tp1465
(F0.5054059805530973
I47
tp1466
s(I0
I0
I1
I1
I1
I7
I1
tp1467
(F0.5908690209438582
I72
tp1468
s(I0
I0
I0
I2
I2
I3
I4
tp1469
(F0.27616610496631677
I38
tp1470
s(I0
I0
I0
I0
I2
I9
I3
tp1471
(F0.41435501761769317
I2806
tp1472
s(I0
I0
I1
I2
I2
I24
I2
tp1473
(F-0.06807178608569056
I7
tp1474
s(I1
I1
I1
I1
I1
I0
I0
tp1475
(F1.0
I1
tp1476
s(I0
I1
I0
I3
I2
I17
I4
tp1477
(F-0.1499311452341191
I31
tp1478
s(I0
I0
I1
I1
I2
I32
I4
tp1479
(F-0.14582142028143477
I14
tp1480
s(I0
I0
I0
I2
I2
I24
I3
tp1481
(F-0.1110407857321624
I42
tp1482
s(I0
I3
I0
I1
I2
I24
I4
tp1483
(F-0.01
I1
tp1484
s(I0
I0
I1
I3
I1
I10
I1
tp1485
(F0.43241032615306907
I8
tp1486
s(I0
I1
I0
I1
I1
I13
I2
tp1487
(F0.36787208599773064
I2
tp1488
s(I0
I0
I0
I2
I2
I29
I4
tp1489
(F-0.158720029384597
I263
tp1490
s(I0
I1
I0
I2
I2
I4
I2
tp1491
(F0.44157006936480603
I3
tp1492
s(I0
I1
I0
I0
I2
I18
I4
tp1493
(F-0.10437728786518986
I53
tp1494
s(I0
I2
I0
I0
I1
I3
I4
tp1495
(F-0.009175188073370283
I3
tp1496
s(I0
I0
I0
I1
I2
I20
I4
tp1497
(F0.06188223810408647
I1006
tp1498
s(I0
I1
I1
I1
I1
I2
I4
tp1499
(F0.24288594830564156
I467
tp1500
s(I1
I0
I0
I1
I0
I0
I0
tp1501
(F1.0
I1
tp1502
s(I0
I0
I0
I3
I2
I32
I4
tp1503
(F-0.1441754724228885
I83
tp1504
s(I0
I0
I1
I0
I1
I7
I2
tp1505
(F0.3543783312822398
I30
tp1506
s(I0
I2
I0
I2
I1
I15
I4
tp1507
(F-0.037718309094774846
I5
tp1508
s(I0
I0
I0
I0
I2
I17
I3
tp1509
(F0.40439195247527027
I397
tp1510
s(I0
I0
I1
I1
I2
I9
I2
tp1511
(F0.5142357252596043
I57
tp1512
s(I0
I2
I0
I0
I2
I10
I3
tp1513
(F-0.0195
I2
tp1514
s(I0
I0
I0
I0
I2
I11
I2
tp1515
(F0.5371704705872197
I5718
tp1516
s(I0
I0
I1
I1
I2
I16
I1
tp1517
(F0.7502218176413455
I42
tp1518
s(I0
I1
I1
I2
I2
I8
I1
tp1519
(F0.7204894686087859
I2
tp1520
s(I0
I1
I1
I0
I2
I17
I1
tp1521
(F0.7450645287525934
I2
tp1522
s(I0
I2
I0
I0
I1
I7
I4
tp1523
(F-0.07238674904044708
I2
tp1524
s(I0
I0
I1
I3
I1
I13
I3
tp1525
(F-0.10926457628217366
I6
tp1526
s(I0
I2
I1
I0
I1
I17
I4
tp1527
(F-0.036351727129016534
I2
tp1528
s(I0
I1
I1
I1
I2
I11
I1
tp1529
(F0.7302644487065241
I5
tp1530
s(I0
I0
I1
I3
I1
I8
I4
tp1531
(F-0.05689473127717851
I79
tp1532
s(I0
I0
I1
I2
I1
I5
I1
tp1533
(F0.6708689781659268
I52
tp1534
s(I0
I1
I0
I1
I1
I11
I3
tp1535
(F0.29514271053169816
I5
tp1536
s(I0
I0
I0
I3
I2
I28
I3
tp1537
(F-0.08041173552621894
I15
tp1538
s(I0
I1
I0
I0
I2
I28
I3
tp1539
(F-0.07789531771749164
I4
tp1540
s(I0
I2
I0
I3
I2
I21
I4
tp1541
(F-0.14242582365356024
I3
tp1542
s(I0
I0
I0
I3
I1
I7
I2
tp1543
(F0.3800827523926598
I748
tp1544
s(I0
I1
I0
I0
I2
I15
I3
tp1545
(F-0.02386249891661948
I3
tp1546
s(I0
I0
I1
I3
I2
I12
I3
tp1547
(F0.31358306983453854
I18
tp1548
s(I0
I0
I1
I1
I1
I16
I4
tp1549
(F-0.1721964077749132
I21
tp1550
s(I0
I0
I1
I0
I1
I5
I1
tp1551
(F0.6412358810932985
I63
tp1552
s(I0
I1
I0
I3
I1
I7
I2
tp1553
(F0.5358795183667014
I17
tp1554
s(I0
I0
I1
I1
I2
I27
I4
tp1555
(F-0.15622229956626305
I48
tp1556
s(I0
I0
I0
I0
I1
I2
I2
tp1557
(F0.5933070681239679
I1931
tp1558
s(I0
I1
I1
I3
I1
I12
I4
tp1559
(F0.06392867710492851
I1457
tp1560
s(I0
I0
I1
I1
I2
I11
I1
tp1561
(F0.7803090288022104
I342
tp1562
s(I0
I0
I0
I2
I2
I31
I3
tp1563
(F-0.06265630996398425
I5
tp1564
s(I0
I1
I0
I1
I2
I31
I3
tp1565
(F-0.035950897292498306
I4
tp1566
s(I0
I0
I0
I3
I2
I3
I2
tp1567
(F0.30856815337714194
I14
tp1568
s(I0
I0
I1
I2
I2
I12
I1
tp1569
(F0.7064093769911449
I269
tp1570
s(I0
I1
I0
I1
I0
I0
I3
tp1571
(F0.17525287468575945
I169
tp1572
s(I0
I1
I0
I0
I2
I11
I2
tp1573
(F0.6151606879802018
I177
tp1574
s(I0
I0
I1
I0
I2
I10
I4
tp1575
(F0.16917866261385453
I106
tp1576
s(I0
I0
I0
I2
I1
I17
I4
tp1577
(F-0.15828190530193426
I88
tp1578
s(I0
I0
I0
I1
I2
I29
I2
tp1579
(F-0.07751071531071506
I11
tp1580
s(I0
I1
I1
I1
I1
I5
I2
tp1581
(F0.28650189674573434
I2
tp1582
s(I0
I0
I0
I3
I2
I30
I2
tp1583
(F-0.07270044267829508
I13
tp1584
s(I0
I0
I0
I0
I0
I0
I2
tp1585
(F-0.19226098768632924
I9500
tp1586
s(I0
I0
I1
I1
I2
I23
I4
tp1587
(F-0.15103736561609551
I70
tp1588
s(I0
I0
I1
I1
I1
I7
I3
tp1589
(F0.17512680659381658
I32
tp1590
s(I0
I0
I1
I1
I1
I2
I4
tp1591
(F0.13475047374686616
I172
tp1592
s(I0
I1
I0
I3
I1
I1
I3
tp1593
(F0.3961125255547591
I3170
tp1594
s(I0
I0
I1
I3
I2
I31
I4
tp1595
(F-0.14455817267142887
I31
tp1596
s(I0
I0
I0
I2
I2
I8
I2
tp1597
(F0.5184121418873483
I1385
tp1598
s(I0
I1
I0
I1
I2
I16
I2
tp1599
(F0.5789841360539607
I14
tp1600
s(I0
I0
I1
I0
I2
I6
I4
tp1601
(F0.20776909481354072
I25
tp1602
s(I0
I1
I0
I2
I2
I20
I4
tp1603
(F-0.08817037742101111
I47
tp1604
s(I0
I1
I1
I1
I2
I28
I4
tp1605
(F-0.04576548902524263
I7
tp1606
s(I0
I0
I0
I0
I2
I18
I2
tp1607
(F0.5187624180946766
I177
tp1608
s(I0
I0
I0
I2
I2
I29
I2
tp1609
(F-0.0735037916691853
I18
tp1610
s(I0
I0
I0
I3
I2
I5
I3
tp1611
(F0.33987955395965513
I451
tp1612
s(I0
I1
I0
I1
I2
I14
I2
tp1613
(F0.5826731901048712
I34
tp1614
s(I1
I1
I0
I0
I1
I0
I0
tp1615
(F1.0
I1
tp1616
s(I0
I1
I0
I2
I2
I11
I4
tp1617
(F-0.0913567427514761
I39
tp1618
s(I0
I0
I0
I1
I2
I19
I3
tp1619
(F0.41290126733362104
I199
tp1620
s(I0
I1
I0
I2
I2
I27
I3
tp1621
(F-0.04066670148284117
I14
tp1622
s(I0
I0
I0
I2
I1
I7
I4
tp1623
(F0.06750358418239828
I3305
tp1624
s(I0
I0
I1
I1
I1
I14
I4
tp1625
(F-0.17344277800480784
I64
tp1626
s(I0
I0
I0
I2
I2
I10
I3
tp1627
(F0.4105342731823656
I2578
tp1628
s(I0
I0
I0
I1
I1
I10
I4
tp1629
(F0.06630237535543786
I1686
tp1630
s(I0
I2
I0
I0
I2
I10
I1
tp1631
(F0.7063712223495768
I3
tp1632
s(I0
I1
I1
I0
I2
I15
I1
tp1633
(F0.750752430923575
I3
tp1634
s(I0
I1
I0
I1
I2
I6
I4
tp1635
(F0.29715161629494213
I60
tp1636
s(I0
I0
I1
I0
I2
I20
I2
tp1637
(F-0.07478534732846522
I8
tp1638
s(I0
I1
I0
I1
I2
I22
I3
tp1639
(F-0.06219202007612146
I4
tp1640
s(I0
I0
I0
I0
I2
I4
I4
tp1641
(F0.2626905607708693
I364
tp1642
s(I0
I1
I0
I2
I2
I15
I4
tp1643
(F-0.06016967862716113
I45
tp1644
s(I0
I0
I1
I3
I1
I8
I2
tp1645
(F-0.06248369276120355
I10
tp1646
s(I0
I0
I1
I2
I1
I5
I3
tp1647
(F0.29525010826473136
I75
tp1648
s(I0
I1
I0
I1
I1
I11
I1
tp1649
(F0.5751483551245116
I19
tp1650
s(I0
I1
I0
I0
I1
I2
I4
tp1651
(F0.25177476749899746
I5992
tp1652
s(I0
I0
I0
I2
I1
I3
I4
tp1653
(F0.12003818341571003
I5473
tp1654
s(I0
I1
I1
I1
I2
I14
I4
tp1655
(F-0.06254364372728304
I10
tp1656
s(I0
I1
I0
I0
I1
I7
I3
tp1657
(F0.3583812503817619
I15
tp1658
s(I0
I1
I0
I0
I2
I23
I4
tp1659
(F-0.16121671675864366
I23
tp1660
s(I0
I0
I0
I1
I2
I17
I4
tp1661
(F0.09726858059956589
I2292
tp1662
s(I0
I1
I1
I0
I1
I12
I4
tp1663
(F0.06103039881011076
I1454
tp1664
s(I0
I0
I1
I0
I2
I13
I1
tp1665
(F0.7416262631894011
I287
tp1666
s(I0
I0
I0
I1
I1
I14
I4
tp1667
(F-0.004485098760728556
I354
tp1668
s(I0
I1
I0
I3
I1
I10
I3
tp1669
(F-0.05848444291320512
I7
tp1670
s(I0
I1
I1
I2
I2
I17
I4
tp1671
(F-0.053976531535017705
I5
tp1672
s(I0
I0
I1
I3
I2
I17
I4
tp1673
(F0.004043850021611783
I46
tp1674
s(I0
I4
I0
I3
I2
I15
I4
tp1675
(F-0.020249745642940603
I4
tp1676
s(I0
I1
I1
I2
I1
I4
I4
tp1677
(F0.2014225787938722
I1167
tp1678
s(I0
I0
I0
I0
I1
I13
I4
tp1679
(F-0.054723696298327414
I358
tp1680
s(I0
I1
I1
I1
I2
I18
I4
tp1681
(F-0.12248396603442631
I12
tp1682
s(I0
I0
I1
I2
I1
I10
I2
tp1683
(F0.27705920424871455
I27
tp1684
s(I0
I0
I0
I2
I2
I20
I4
tp1685
(F0.05296032053687369
I859
tp1686
s(I0
I0
I1
I2
I2
I12
I3
tp1687
(F0.44747082029820573
I70
tp1688
s(I0
I1
I0
I1
I0
I0
I1
tp1689
(F0.3826834298733824
I13
tp1690
s(I0
I1
I0
I0
I2
I11
I4
tp1691
(F0.21561778162483775
I33
tp1692
s(I0
I0
I0
I1
I2
I13
I1
tp1693
(F0.7926859330066944
I3158
tp1694
s(I0
I0
I0
I3
I2
I14
I3
tp1695
(F0.4381688207149198
I1127
tp1696
s(I0
I1
I0
I2
I2
I13
I1
tp1697
(F0.7741878942722872
I94
tp1698
s(I0
I1
I0
I0
I2
I14
I3
tp1699
(F0.387278712184108
I10
tp1700
s(I0
I0
I1
I2
I1
I7
I2
tp1701
(F0.3661354685808951
I33
tp1702
s(I0
I0
I0
I2
I1
I1
I1
tp1703
(F0.7818988863112399
I6131
tp1704
s(I0
I0
I0
I1
I2
I24
I3
tp1705
(F-0.04026115032309826
I52
tp1706
s(I0
I1
I0
I2
I2
I16
I3
tp1707
(F0.22560542715364534
I12
tp1708
s(I0
I0
I0
I2
I1
I12
I3
tp1709
(F0.134078740689539
I219
tp1710
s(I0
I0
I0
I2
I2
I35
I2
tp1711
(F-0.057284599841131906
I2
tp1712
s(I0
I0
I0
I0
I0
I0
I4
tp1713
(F-0.19980921589698283
I8795
tp1714
s(I0
I0
I0
I1
I1
I12
I1
tp1715
(F0.4043573470328417
I265
tp1716
s(I0
I1
I0
I2
I1
I12
I1
tp1717
(F0.5488907935953149
I19
tp1718
s(I0
I0
I1
I3
I1
I11
I2
tp1719
(F0.1730686180836996
I8
tp1720
s(I0
I0
I1
I1
I1
I2
I2
tp1721
(F0.5541134090543454
I207
tp1722
s(I0
I1
I0
I3
I1
I1
I1
tp1723
(F0.7591657384277273
I18
tp1724
s(I0
I0
I0
I0
I1
I9
I4
tp1725
(F0.03932519974565477
I1243
tp1726
s(I0
I0
I0
I1
I1
I1
I3
tp1727
(F0.34164690246261836
I4846
tp1728
s(I0
I0
I0
I2
I2
I8
I4
tp1729
(F0.21038662646730968
I3457
tp1730
s(I0
I0
I0
I0
I2
I2
I1
tp1731
(F0.43916584328539005
I98
tp1732
s(I0
I1
I0
I0
I1
I3
I4
tp1733
(F0.24933720523153236
I9081
tp1734
s(I0
I0
I0
I2
I2
I13
I3
tp1735
(F0.4145238014642431
I1633
tp1736
s(I0
I1
I0
I3
I2
I10
I1
tp1737
(F0.7523597569184851
I86
tp1738
s(I0
I1
I0
I1
I2
I13
I3
tp1739
(F0.42745291194035084
I42
tp1740
s(I0
I1
I0
I3
I2
I26
I4
tp1741
(F-0.12709863328000412
I14
tp1742
s(I0
I1
I1
I1
I2
I12
I3
tp1743
(F-0.02152250589731637
I5
tp1744
s(I0
I0
I0
I0
I2
I31
I3
tp1745
(F-0.0447525252709174
I13
tp1746
s(I0
I0
I1
I2
I1
I12
I3
tp1747
(F0.041864031643391794
I7
tp1748
s(I0
I0
I1
I0
I2
I13
I2
tp1749
(F0.5149918792628673
I21
tp1750
s(I0
I0
I0
I3
I2
I5
I1
tp1751
(F0.7086007095943229
I373
tp1752
s(I0
I0
I1
I2
I2
I14
I2
tp1753
(F0.5432577004813112
I75
tp1754
s(I0
I1
I0
I0
I2
I21
I1
tp1755
(F0.6947120563886907
I3
tp1756
s(I0
I0
I0
I1
I2
I3
I2
tp1757
(F0.30764453464507036
I29
tp1758
s(I0
I1
I0
I2
I2
I11
I2
tp1759
(F0.5967329326146957
I84
tp1760
s(I0
I0
I0
I1
I2
I19
I1
tp1761
(F0.7341759645282936
I230
tp1762
s(I0
I0
I0
I2
I1
I7
I2
tp1763
(F0.38671483170385684
I893
tp1764
s(I0
I0
I0
I3
I1
I14
I1
tp1765
(F0.3610263516131521
I32
tp1766
s(I0
I0
I1
I1
I0
I0
I2
tp1767
(F-0.18880483183513455
I1311
tp1768
s(I0
I0
I0
I0
I1
I16
I2
tp1769
(F0.1571754458665703
I17
tp1770
s(I0
I0
I1
I1
I1
I9
I3
tp1771
(F0.018061695299110777
I22
tp1772
s(I0
I0
I1
I0
I1
I12
I2
tp1773
(F0.16445463904545976
I3
tp1774
s(I0
I1
I0
I3
I1
I8
I2
tp1775
(F0.5093589431461917
I18
tp1776
s(I0
I1
I0
I3
I2
I22
I4
tp1777
(F-0.13355570581579557
I20
tp1778
s(I0
I0
I0
I1
I1
I10
I2
tp1779
(F0.3012264220627717
I618
tp1780
s(I0
I2
I0
I3
I1
I3
I4
tp1781
(F-0.01
I1
tp1782
s(I0
I0
I1
I1
I2
I18
I4
tp1783
(F-0.0129458865046434
I70
tp1784
s(I0
I0
I1
I3
I2
I24
I2
tp1785
(F-0.034827529810766755
I2
tp1786
s(I0
I0
I0
I2
I2
I6
I2
tp1787
(F0.5032268862043348
I765
tp1788
s(I0
I0
I0
I0
I1
I11
I1
tp1789
(F0.4177705730007307
I280
tp1790
s(I0
I1
I1
I2
I1
I10
I4
tp1791
(F0.09145034782424606
I2319
tp1792
s(I0
I1
I0
I1
I2
I6
I2
tp1793
(F0.6238819619787814
I37
tp1794
s(I1
I1
I0
I3
I2
I0
I0
tp1795
(F1.0
I1
tp1796
s(I0
I0
I0
I1
I2
I8
I3
tp1797
(F0.36963620863540514
I3036
tp1798
s(I0
I0
I1
I2
I2
I21
I4
tp1799
(F-0.11081999066155923
I40
tp1800
s(I0
I1
I0
I1
I2
I22
I1
tp1801
(F0.736444735272217
I2
tp1802
s(I0
I0
I0
I0
I2
I4
I2
tp1803
(F0.4823277710499144
I454
tp1804
s(I0
I2
I0
I2
I2
I21
I4
tp1805
(F-0.06259411420191403
I11
tp1806
s(I0
I0
I1
I1
I2
I33
I4
tp1807
(F-0.13823606909889977
I13
tp1808
s(I0
I0
I0
I3
I2
I12
I2
tp1809
(F0.5272053162797005
I2750
tp1810
s(I0
I1
I0
I3
I2
I20
I2
tp1811
(F0.49113576547826676
I7
tp1812
s(I0
I0
I1
I2
I2
I5
I3
tp1813
(F0.33678349240039573
I103
tp1814
s(I0
I1
I0
I0
I2
I12
I2
tp1815
(F0.5887770309728714
I72
tp1816
s(I0
I0
I0
I1
I2
I10
I1
tp1817
(F0.7060688499847412
I1608
tp1818
s(I0
I0
I0
I1
I2
I26
I2
tp1819
(F0.1564805532754232
I28
tp1820
s(I0
I1
I0
I1
I1
I14
I4
tp1821
(F0.0297084708617735
I163
tp1822
s(I0
I1
I0
I0
I1
I7
I1
tp1823
(F0.649191198234704
I23
tp1824
s(I0
I1
I0
I2
I2
I18
I2
tp1825
(F0.48282952498912657
I12
tp1826
s(I0
I0
I1
I3
I1
I7
I4
tp1827
(F-0.01975817405248551
I115
tp1828
s(I0
I0
I0
I3
I2
I23
I1
tp1829
(F0.7061092775542965
I26
tp1830
s(I0
I0
I0
I2
I1
I14
I2
tp1831
(F0.2033278729818716
I62
tp1832
s(I0
I0
I0
I3
I1
I16
I2
tp1833
(F0.21222738300703767
I6
tp1834
s(I0
I0
I1
I2
I2
I18
I2
tp1835
(F0.437698148072053
I8
tp1836
s(I0
I0
I1
I2
I1
I8
I2
tp1837
(F0.33248399600406553
I46
tp1838
s(I0
I1
I0
I2
I1
I11
I1
tp1839
(F0.5505843396133501
I23
tp1840
s(I0
I0
I0
I1
I1
I3
I2
tp1841
(F0.5625654620352396
I4207
tp1842
s(I0
I0
I1
I1
I1
I11
I4
tp1843
(F-0.10510458350536876
I74
tp1844
s(I0
I0
I1
I0
I1
I10
I3
tp1845
(F0.053370165507594575
I7
tp1846
s(I0
I1
I0
I3
I1
I10
I1
tp1847
(F0.6111337886360962
I9
tp1848
s(I0
I0
I1
I2
I2
I17
I4
tp1849
(F0.09922574520079665
I58
tp1850
s(I0
I0
I0
I2
I2
I15
I2
tp1851
(F0.5314816563036289
I1043
tp1852
s(I0
I1
I0
I1
I2
I15
I2
tp1853
(F0.5709326341731533
I62
tp1854
s(I0
I0
I0
I0
I2
I13
I1
tp1855
(F0.7385611293480109
I3935
tp1856
s(I0
I0
I1
I1
I2
I4
I4
tp1857
(F0.2419233956562158
I3
tp1858
s(I0
I0
I0
I0
I1
I13
I2
tp1859
(F0.2564631267680846
I138
tp1860
s(I0
I0
I0
I0
I2
I29
I2
tp1861
(F-0.07071586974115636
I8
tp1862
s(I0
I2
I0
I1
I2
I10
I4
tp1863
(F-0.0195
I2
tp1864
s(I0
I0
I1
I3
I1
I3
I4
tp1865
(F0.050670740366504576
I170
tp1866
s(I0
I0
I0
I1
I2
I13
I3
tp1867
(F0.4222215467834678
I2738
tp1868
s(I0
I0
I0
I3
I2
I14
I1
tp1869
(F0.8185529615930034
I1310
tp1870
s(I0
I1
I0
I2
I2
I13
I3
tp1871
(F0.4338218943949127
I7
tp1872
s(I0
I1
I0
I0
I2
I14
I1
tp1873
(F0.7596611924489349
I117
tp1874
s(I0
I0
I0
I1
I2
I8
I4
tp1875
(F0.21024890675044824
I5827
tp1876
s(I0
I0
I0
I2
I1
I1
I3
tp1877
(F0.3727814041851148
I4222
tp1878
s(I0
I0
I0
I1
I2
I24
I1
tp1879
(F0.5383101497105826
I21
tp1880
s(I0
I1
I0
I2
I2
I16
I1
tp1881
(F0.7450099077829502
I46
tp1882
s(I0
I0
I0
I3
I1
I9
I1
tp1883
(F0.5097211822763229
I450
tp1884
s(I0
I0
I0
I2
I1
I12
I1
tp1885
(F0.4007840908269894
I200
tp1886
s(I0
I0
I0
I3
I0
I0
I4
tp1887
(F-0.19981004575062014
I9158
tp1888
s(I0
I0
I0
I2
I2
I35
I4
tp1889
(F-0.11284812558083476
I32
tp1890
s(I0
I0
I0
I1
I1
I12
I3
tp1891
(F0.11854662939296276
I258
tp1892
s(I0
I1
I0
I2
I1
I12
I3
tp1893
(F-0.10619475886346466
I16
tp1894
s(I0
I1
I0
I2
I1
I9
I4
tp1895
(F0.11389340492606398
I2184
tp1896
s(I0
I2
I0
I2
I1
I16
I4
tp1897
(F-0.0366997498745444
I2
tp1898
s(I0
I0
I0
I1
I1
I1
I1
tp1899
(F0.7230879567200965
I5688
tp1900
s(I0
I1
I0
I3
I1
I4
I4
tp1901
(F0.2116873493091511
I5845
tp1902
s(I0
I0
I0
I0
I1
I4
I1
tp1903
(F0.7068014703276001
I1045
tp1904
s(I0
I0
I1
I2
I2
I19
I1
tp1905
(F0.6707136667543375
I21
tp1906
s(I0
I1
I1
I2
I1
I3
I2
tp1907
(F0.42083408395249977
I5
tp1908
s(I0
I0
I0
I2
I2
I13
I1
tp1909
(F0.714945655529709
I1173
tp1910
s(I0
I1
I0
I3
I2
I10
I3
tp1911
(F0.46376120444577545
I12
tp1912
s(I0
I0
I1
I3
I2
I20
I4
tp1913
(F-0.06096879773155084
I26
tp1914
s(I0
I1
I0
I1
I2
I13
I1
tp1915
(F0.8499361578617995
I165
tp1916
s(I0
I1
I0
I3
I2
I15
I4
tp1917
(F0.008156427703693188
I20
tp1918
s(I0
I0
I0
I0
I2
I31
I1
tp1919
(F0.439912560659032
I2
tp1920
s(I0
I0
I1
I2
I1
I12
I1
tp1921
(F0.39320460000589263
I16
tp1922
s(I0
I0
I1
I0
I2
I13
I4
tp1923
(F0.1333458112594021
I112
tp1924
s(I0
I1
I1
I1
I2
I23
I4
tp1925
(F-0.07357826786869434
I3
tp1926
s(I0
I0
I1
I3
I1
I1
I1
tp1927
(F0.6822707000133688
I174
tp1928
s(I0
I0
I1
I0
I2
I8
I3
tp1929
(F0.365212354402691
I26
tp1930
s(I0
I0
I0
I3
I2
I16
I1
tp1931
(F0.820675050160081
I748
tp1932
s(I0
I0
I0
I3
I1
I14
I3
tp1933
(F0.10117196565472904
I89
tp1934
s(I0
I1
I0
I0
I2
I24
I1
tp1935
(F0.47979217282909886
I3
tp1936
s(I0
I0
I0
I3
I2
I32
I2
tp1937
(F-0.056669398157423924
I8
tp1938
s(I0
I1
I0
I2
I2
I30
I4
tp1939
(F-0.06027535977067776
I4
tp1940
s(I0
I0
I0
I3
I1
I11
I4
tp1941
(F-0.07653218168825086
I562
tp1942
s(I0
I1
I1
I0
I1
I5
I4
tp1943
(F0.17556417358082704
I2061
tp1944
s(I0
I0
I1
I1
I0
I0
I4
tp1945
(F-0.19971726458565753
I690
tp1946
s(I0
I0
I1
I0
I2
I3
I2
tp1947
(F0.4946539878174524
I5
tp1948
s(I0
I1
I1
I0
I2
I34
I4
tp1949
(F-0.0195
I3
tp1950
s(I0
I0
I1
I1
I1
I9
I1
tp1951
(F0.5308600285296535
I39
tp1952
s(I0
I1
I0
I3
I1
I8
I4
tp1953
(F0.13998959513570922
I2194
tp1954
s(I0
I1
I0
I0
I1
I10
I2
tp1955
(F0.40553069647750534
I34
tp1956
s(I0
I0
I1
I0
I1
I1
I3
tp1957
(F0.1723350743140659
I110
tp1958
s(I0
I0
I1
I3
I2
I24
I4
tp1959
(F-0.16786798899863623
I27
tp1960
s(I0
I1
I1
I3
I1
I16
I4
tp1961
(F0.03058087990647503
I134
tp1962
s(I0
I0
I0
I0
I1
I11
I3
tp1963
(F0.14322748249605616
I221
tp1964
s(I0
I0
I1
I2
I2
I21
I2
tp1965
(F0.2780262235990658
I13
tp1966
s(I0
I0
I1
I1
I2
I15
I3
tp1967
(F0.25305074977992204
I10
tp1968
s(I0
I0
I0
I3
I2
I12
I4
tp1969
(F0.16603097864697905
I2137
tp1970
s(I0
I0
I1
I2
I2
I5
I1
tp1971
(F0.6908722105429709
I28
tp1972
s(I0
I1
I0
I1
I2
I19
I4
tp1973
(F-0.14638402460748143
I38
tp1974
s(I0
I0
I0
I1
I2
I10
I3
tp1975
(F0.39789968091776995
I3649
tp1976
s(I0
I0
I0
I2
I2
I27
I1
tp1977
(F-0.04987561150834907
I3
tp1978
s(I0
I0
I0
I0
I2
I17
I4
tp1979
(F0.09783695975858844
I1559
tp1980
s(I0
I2
I1
I0
I1
I15
I4
tp1981
(F-0.03695763071459595
I5
tp1982
s(I0
I1
I0
I2
I2
I18
I4
tp1983
(F-0.018396049673345793
I47
tp1984
s(I0
I0
I0
I3
I1
I7
I4
tp1985
(F0.061325815137248704
I2163
tp1986
s(I0
I0
I0
I0
I2
I33
I1
tp1987
(F-0.029437954521562313
I5
tp1988
s(I0
I0
I0
I3
I2
I23
I3
tp1989
(F-0.10434680760985088
I35
tp1990
s(I0
I0
I0
I2
I1
I14
I4
tp1991
(F-0.10185502617714555
I338
tp1992
s(I0
I0
I0
I3
I2
I18
I4
tp1993
(F0.07672170542756299
I924
tp1994
s(I0
I0
I1
I3
I1
I7
I2
tp1995
(F0.31238935858048555
I43
tp1996
s(I0
I1
I0
I0
I2
I18
I3
tp1997
(F-0.07867190966757157
I3
tp1998
s(I0
I1
I0
I2
I1
I11
I3
tp1999
(F-0.09253007359400964
I11
tp2000
s(I0
I0
I0
I1
I1
I3
I4
tp2001
(F0.24225843572655195
I7780
tp2002
s(I0
I0
I1
I0
I1
I10
I1
tp2003
(F0.4707771317306493
I55
tp2004
s(I0
I0
I1
I3
I2
I6
I2
tp2005
(F0.4572311692917243
I12
tp2006
s(I0
I1
I0
I1
I2
I15
I4
tp2007
(F-0.14720534368118052
I33
tp2008
s(I0
I0
I0
I0
I2
I13
I3
tp2009
(F0.41383337238876045
I1733
tp2010
s(I0
I0
I1
I1
I2
I4
I2
tp2011
(F0.04387778562095294
I2
tp2012
s(I0
I1
I0
I3
I2
I13
I3
tp2013
(F0.34481238840124645
I10
tp2014
s(I0
I0
I0
I0
I2
I29
I4
tp2015
(F-0.1569322593522358
I174
tp2016
s(I0
I1
I1
I3
I1
I6
I4
tp2017
(F0.1663470404939777
I2006
tp2018
s(I0
I1
I1
I2
I1
I15
I4
tp2019
(F0.03480484252617951
I310
tp2020
s(I0
I2
I1
I1
I1
I10
I4
tp2021
(F-0.028525000000000002
I2
tp2022
s(I0
I0
I1
I0
I2
I10
I2
tp2023
(F0.39187477560584444
I12
tp2024
s(I0
I1
I1
I1
I2
I5
I4
tp2025
(F-0.028104999867941474
I3
tp2026
s(I0
I0
I0
I1
I2
I8
I2
tp2027
(F0.5090196122434968
I2326
tp2028
s(I0
I1
I0
I1
I1
I9
I2
tp2029
(F0.4354235318160489
I43
tp2030
s(I0
I0
I0
I3
I2
I30
I4
tp2031
(F-0.14838000494819753
I179
tp2032
s(I0
I2
I0
I1
I1
I6
I4
tp2033
(F-0.10498755031881822
I2
tp2034
s(I0
I0
I0
I3
I1
I9
I3
tp2035
(F0.21421476700274242
I285
tp2036
s(I0
I0
I0
I0
I2
I35
I4
tp2037
(F-0.09590345664352072
I22
tp2038
s(I0
I0
I1
I2
I1
I16
I2
tp2039
(F-0.028104999867941474
I3
tp2040
s(I0
I1
I0
I2
I2
I32
I4
tp2041
(F-0.061011572803252874
I9
tp2042
s(I0
I1
I1
I1
I1
I3
I3
tp2043
(F0.4103759693510141
I18
tp2044
s(I0
I0
I0
I3
I0
I0
I2
tp2045
(F-0.1936409113270906
I10509
tp2046
s(I0
I0
I1
I0
I1
I3
I2
tp2047
(F0.5358871133501593
I117
tp2048
s(I0
I0
I1
I3
I1
I2
I2
tp2049
(F0.476845990124574
I74
tp2050
s(I0
I0
I1
I3
I2
I15
I1
tp2051
(F0.7329889607484708
I13
tp2052
s(I0
I0
I0
I1
I1
I17
I2
tp2053
(F0.1455428869039403
I5
tp2054
s(I0
I1
I0
I2
I1
I9
I2
tp2055
(F0.4453328646228544
I20
tp2056
s(I0
I1
I1
I3
I1
I2
I4
tp2057
(F0.25854620989973254
I67
tp2058
s(I0
I0
I0
I0
I1
I4
I3
tp2059
(F0.29555223417134924
I1171
tp2060
s(I0
I0
I1
I2
I2
I19
I3
tp2061
(F-0.1097007326473613
I5
tp2062
s(I0
I1
I1
I2
I1
I3
I4
tp2063
(F0.24636090964720028
I894
tp2064
s(I0
I0
I1
I1
I2
I13
I2
tp2065
(F0.5495536619253041
I87
tp2066
s(I0
I1
I0
I2
I2
I20
I3
tp2067
(F-0.08288103888821985
I10
tp2068
s(I1
I0
I1
I3
I2
I0
I0
tp2069
(F1.0
I1
tp2070
s(I0
I1
I0
I3
I2
I15
I2
tp2071
(F0.5509081505702125
I12
tp2072
s(I0
I1
I0
I1
I2
I29
I4
tp2073
(F-0.12873310982195213
I15
tp2074
s(I0
I2
I0
I1
I1
I10
I4
tp2075
(F-0.08554014978467107
I4
tp2076
s(I0
I2
I0
I2
I2
I28
I3
tp2077
(F-0.09069972262920024
I9
tp2078
s(I0
I0
I1
I0
I2
I24
I4
tp2079
(F-0.1682536013416933
I52
tp2080
s(I0
I0
I1
I3
I1
I1
I3
tp2081
(F0.09276594068948577
I93
tp2082
s(I0
I0
I1
I2
I1
I9
I4
tp2083
(F-0.05821632915410821
I53
tp2084
s(I0
I0
I1
I0
I2
I8
I1
tp2085
(F0.6878816678280366
I36
tp2086
s(I0
I2
I0
I1
I2
I15
I4
tp2087
(F-0.13224979806174283
I6
tp2088
s(I0
I1
I1
I1
I2
I7
I1
tp2089
(F0.7366098847279478
I2
tp2090
s(I0
I1
I0
I1
I1
I7
I3
tp2091
(F0.3406613184956793
I20
tp2092
s(I0
I0
I0
I3
I2
I16
I3
tp2093
(F0.4168813440297768
I496
tp2094
s(I0
I1
I0
I0
I2
I24
I3
tp2095
(F-0.10985997492427144
I4
tp2096
s(I0
I0
I1
I2
I0
I0
I4
tp2097
(F-0.1997376960697084
I1312
tp2098
s(I0
I0
I0
I3
I1
I11
I2
tp2099
(F0.26544131769764073
I281
tp2100
s(I0
I2
I1
I2
I1
I13
I4
tp2101
(F-0.035950897292498306
I4
tp2102
s(I0
I0
I1
I3
I2
I8
I3
tp2103
(F0.35546151011658866
I30
tp2104
s(I0
I0
I1
I0
I2
I7
I2
tp2105
(F0.17878553438469846
I12
tp2106
s(I0
I0
I1
I0
I1
I1
I1
tp2107
(F0.6532872611809452
I202
tp2108
s(I0
I0
I1
I3
I2
I13
I4
tp2109
(F0.10463977930906763
I103
tp2110
s(I0
I0
I1
I1
I1
I4
I1
tp2111
(F0.7666830403465928
I86
tp2112
s(I0
I1
I0
I3
I1
I3
I2
tp2113
(F0.553298095580721
I19
tp2114
s(I0
I1
I0
I0
I2
I21
I4
tp2115
(F-0.1480842854854866
I30
tp2116
s(I0
I0
I0
I1
I2
I3
I1
tp2117
(F0.7253081051947198
I72
tp2118
s(I0
I0
I1
I0
I2
I20
I4
tp2119
(F-0.16823752316327514
I62
tp2120
s(I0
I0
I0
I0
I1
I6
I2
tp2121
(F0.4021476137741046
I988
tp2122
s(I0
I0
I1
I1
I2
I15
I1
tp2123
(F0.7713230933476406
I135
tp2124
s(I0
I0
I0
I2
I2
I27
I3
tp2125
(F-0.09274694299966427
I42
tp2126
s(I0
I0
I0
I3
I2
I7
I2
tp2127
(F0.5316673446241823
I922
tp2128
s(I0
I0
I1
I1
I2
I3
I2
tp2129
(F0.22276145963419738
I7
tp2130
s(I0
I1
I0
I0
I1
I8
I4
tp2131
(F0.11302625633525044
I2279
tp2132
s(I0
I0
I0
I1
I2
I17
I2
tp2133
(F0.5260692053624977
I700
tp2134
s(I0
I1
I1
I1
I1
I1
I2
tp2135
(F0.47998663681247755
I6
tp2136
s(I0
I1
I0
I1
I1
I5
I4
tp2137
(F0.17964749783251763
I8336
tp2138
s(I0
I0
I0
I3
I2
I18
I2
tp2139
(F0.5301139445303524
I377
tp2140
s(I0
I1
I0
I2
I2
I25
I2
tp2141
(F-0.046438440284853916
I8
tp2142
s(I0
I1
I0
I0
I2
I26
I2
tp2143
(F-0.03130687986910469
I4
tp2144
s(I0
I3
I0
I3
I2
I17
I4
tp2145
(F-0.04977326299066517
I6
tp2146
s(I0
I1
I0
I2
I1
I16
I4
tp2147
(F-0.05764884864215031
I51
tp2148
s(I0
I0
I1
I0
I1
I15
I4
tp2149
(F-0.1593247874843268
I22
tp2150
s(I0
I1
I1
I2
I1
I4
I2
tp2151
(F-0.01
I1
tp2152
s(I0
I0
I1
I2
I2
I28
I4
tp2153
(F-0.15902883825221717
I19
tp2154
s(I0
I2
I0
I2
I2
I18
I4
tp2155
(F-0.052103712215686854
I10
tp2156
s(I0
I1
I1
I2
I2
I15
I1
tp2157
(F0.662611817200963
I2
tp2158
s(I0
I1
I1
I3
I0
I0
I2
tp2159
(F0.17754354137989475
I4
tp2160
s(I0
I1
I0
I1
I2
I20
I2
tp2161
(F-0.08476276568520022
I3
tp2162
s(I0
I2
I0
I1
I1
I8
I4
tp2163
(F-0.03929995706296256
I6
tp2164
s(I0
I1
I0
I0
I1
I12
I4
tp2165
(F0.05826975634948736
I334
tp2166
s(I0
I0
I1
I3
I1
I14
I3
tp2167
(F-0.028104999867941474
I3
tp2168
s(I0
I0
I1
I2
I1
I7
I4
tp2169
(F0.024005659849413486
I133
tp2170
s(I0
I1
I0
I1
I1
I9
I4
tp2171
(F0.10247731152168013
I2475
tp2172
s(I0
I0
I0
I2
I2
I25
I2
tp2173
(F-0.07943954254285143
I26
tp2174
s(I0
I1
I0
I0
I2
I16
I1
tp2175
(F0.72197924925805
I80
tp2176
s(I0
I1
I0
I1
I1
I12
I3
tp2177
(F-0.07294000604550133
I9
tp2178
s(I0
I0
I0
I3
I2
I25
I3
tp2179
(F-0.09696346203190598
I37
tp2180
s(I0
I1
I0
I0
I2
I17
I3
tp2181
(F-0.049522324930393366
I3
tp2182
s(I0
I0
I0
I1
I2
I7
I4
tp2183
(F0.22504084054711362
I3390
tp2184
s(I0
I1
I0
I2
I2
I22
I3
tp2185
(F-0.08404882711127296
I12
tp2186
s(I0
I0
I0
I3
I1
I2
I4
tp2187
(F0.10747141938720042
I1969
tp2188
s(I0
I0
I0
I1
I2
I23
I3
tp2189
(F-0.11146356230683153
I47
tp2190
s(I0
I1
I1
I1
I1
I3
I1
tp2191
(F0.8736059522580785
I6
tp2192
s(I0
I0
I1
I0
I1
I3
I4
tp2193
(F0.08751705926051184
I144
tp2194
s(I0
I0
I1
I3
I2
I15
I3
tp2195
(F0.33713257863491924
I9
tp2196
s(I0
I0
I0
I1
I1
I5
I3
tp2197
(F0.2692993812622656
I1588
tp2198
s(I0
I1
I0
I1
I1
I10
I2
tp2199
(F0.4035809521315221
I36
tp2200
s(I0
I0
I1
I1
I2
I13
I4
tp2201
(F0.12367324035295336
I130
tp2202
s(I0
I1
I0
I2
I1
I6
I4
tp2203
(F0.16514380079924473
I5543
tp2204
s(I0
I2
I0
I0
I2
I14
I1
tp2205
(F0.7263674524922294
I5
tp2206
s(I0
I1
I1
I0
I2
I19
I4
tp2207
(F-0.13614126904973486
I5
tp2208
s(I0
I0
I0
I2
I2
I2
I4
tp2209
(F0.2425340847065709
I5
tp2210
s(I0
I1
I0
I0
I2
I5
I4
tp2211
(F0.261361198682249
I10
tp2212
s(I0
I0
I1
I0
I2
I24
I2
tp2213
(F-0.02848840577874748
I4
tp2214
s(I0
I0
I1
I2
I2
I14
I4
tp2215
(F0.13310814691768194
I133
tp2216
s(I0
I1
I0
I1
I2
I26
I3
tp2217
(F-0.06114763746383341
I14
tp2218
s(I0
I0
I0
I1
I2
I3
I4
tp2219
(F0.27554814508772457
I86
tp2220
s(I1
I0
I0
I2
I0
I0
I0
tp2221
(F1.0
I1
tp2222
s(I0
I1
I0
I0
I1
I14
I1
tp2223
(F0.5811633403399716
I7
tp2224
s(I0
I1
I0
I3
I2
I16
I4
tp2225
(F-0.03174292375888056
I27
tp2226
s(I0
I0
I1
I3
I1
I12
I2
tp2227
(F-0.08068921451978917
I11
tp2228
s(I0
I0
I0
I1
I2
I5
I1
tp2229
(F0.7579919539985063
I520
tp2230
s(I0
I1
I0
I1
I1
I7
I1
tp2231
(F0.624788697296356
I33
tp2232
s(I0
I1
I0
I0
I1
I3
I3
tp2233
(F0.4448282078954414
I148
tp2234
s(I0
I0
I1
I2
I0
I0
I2
tp2235
(F-0.19360542837437544
I1203
tp2236
s(I0
I0
I0
I3
I2
I6
I3
tp2237
(F0.36827364375204286
I894
tp2238
s(I0
I1
I1
I1
I1
I13
I4
tp2239
(F0.058102527526338425
I1005
tp2240
s(I0
I0
I0
I2
I1
I17
I2
tp2241
(F-0.0452438125
I2
tp2242
s(I0
I1
I0
I2
I1
I2
I4
tp2243
(F0.2652143520197555
I5479
tp2244
s(I0
I0
I1
I3
I2
I13
I2
tp2245
(F0.5323181289300136
I22
tp2246
s(I0
I0
I1
I1
I1
I4
I3
tp2247
(F0.24202240220320598
I79
tp2248
s(I0
I0
I1
I0
I1
I17
I4
tp2249
(F-0.1575763730463286
I13
tp2250
s(I0
I1
I0
I3
I1
I3
I4
tp2251
(F0.2781356789582716
I7548
tp2252
s(I0
I0
I0
I2
I2
I6
I4
tp2253
(F0.22158445171752753
I1278
tp2254
s(I0
I1
I0
I3
I1
I6
I3
tp2255
(F0.3480461828926144
I10
tp2256
s(I1
I0
I0
I2
I2
I0
I0
tp2257
(F1.0
I1
tp2258
s(I0
I1
I0
I1
I2
I9
I3
tp2259
(F0.47604638384954046
I107
tp2260
s(I0
I0
I1
I0
I2
I19
I3
tp2261
(F-0.09256325567095278
I13
tp2262
s(I0
I1
I0
I3
I2
I20
I4
tp2263
(F-0.1051926455122096
I38
tp2264
s(I0
I1
I0
I0
I2
I7
I1
tp2265
(F0.7700386183803066
I80
tp2266
s(I0
I0
I1
I2
I1
I14
I2
tp2267
(F0.19526010197159188
I11
tp2268
s(I0
I1
I0
I1
I1
I14
I2
tp2269
(F-0.04570322662552512
I4
tp2270
s(I0
I0
I0
I3
I2
I7
I4
tp2271
(F0.22271258490997634
I1190
tp2272
s(I0
I1
I0
I1
I2
I24
I4
tp2273
(F-0.12205830285422478
I44
tp2274
s(I0
I0
I0
I2
I2
I9
I4
tp2275
(F0.19545085573513693
I3867
tp2276
s(I0
I1
I0
I0
I1
I8
I2
tp2277
(F0.4442501787462465
I48
tp2278
s(I0
I1
I0
I2
I2
I9
I1
tp2279
(F0.764567771026123
I96
tp2280
s(I0
I2
I0
I0
I1
I4
I4
tp2281
(F0.18128750913562425
I2
tp2282
s(I0
I1
I0
I0
I2
I10
I3
tp2283
(F0.4142774764441458
I46
tp2284
s(I0
I1
I1
I1
I1
I1
I4
tp2285
(F0.2995635553205471
I36
tp2286
s(I0
I2
I1
I0
I1
I16
I4
tp2287
(F-0.04225296832744933
I6
tp2288
s(I0
I1
I0
I2
I2
I25
I4
tp2289
(F-0.11872428202865258
I33
tp2290
s(I0
I0
I0
I2
I1
I5
I1
tp2291
(F0.7024740827935532
I2256
tp2292
s(I0
I0
I0
I3
I1
I16
I4
tp2293
(F-0.1690037013648339
I113
tp2294
s(I0
I0
I0
I1
I2
I28
I3
tp2295
(F-0.08737597324932565
I31
tp2296
s(I0
I1
I0
I2
I2
I28
I3
tp2297
(F-0.04476029260101396
I5
tp2298
s(I0
I0
I1
I1
I1
I11
I2
tp2299
(F0.24194101671330978
I3
tp2300
s(I0
I0
I0
I1
I1
I8
I1
tp2301
(F0.5394237874800263
I867
tp2302
s(I0
I1
I0
I3
I1
I13
I2
tp2303
(F0.3920948607515873
I7
tp2304
s(I0
I0
I1
I1
I2
I20
I3
tp2305
(F-0.02461257883141795
I8
tp2306
s(I0
I0
I1
I1
I1
I6
I2
tp2307
(F0.39634523169033314
I61
tp2308
s(I0
I0
I0
I2
I2
I4
I1
tp2309
(F0.7012589988599166
I142
tp2310
s(I0
I1
I0
I1
I2
I4
I1
tp2311
(F-0.035950897292498306
I4
tp2312
s(I0
I1
I1
I3
I0
I0
I4
tp2313
(F-0.088007424316797
I2
tp2314
s(I0
I1
I0
I1
I2
I20
I4
tp2315
(F-0.09911837158855688
I58
tp2316
s(I0
I0
I0
I0
I2
I6
I1
tp2317
(F0.7043603782475054
I924
tp2318
s(I0
I0
I1
I0
I2
I17
I4
tp2319
(F0.04623869264524568
I104
tp2320
s(I0
I0
I1
I2
I2
I7
I2
tp2321
(F0.5014110598124976
I191
tp2322
s(I0
I0
I0
I0
I2
I22
I4
tp2323
(F0.023771499177102817
I409
tp2324
s(I0
I0
I0
I3
I2
I9
I2
tp2325
(F0.5319501399203438
I1358
tp2326
s(I0
I0
I0
I0
I2
I19
I3
tp2327
(F0.4067143869254583
I119
tp2328
s(I0
I1
I0
I1
I1
I12
I1
tp2329
(F0.550828340617935
I22
tp2330
s(I0
I0
I0
I3
I2
I25
I1
tp2331
(F0.8200146636277781
I5
tp2332
s(I0
I1
I0
I3
I2
I27
I3
tp2333
(F-0.046879258130096
I12
tp2334
s(I0
I1
I0
I0
I2
I17
I1
tp2335
(F0.7334761819307596
I52
tp2336
s(I0
I0
I0
I1
I2
I7
I2
tp2337
(F0.49094356186504057
I2283
tp2338
s(I0
I1
I0
I2
I2
I23
I2
tp2339
(F-0.04902566816861244
I3
tp2340
s(I0
I0
I0
I1
I2
I23
I1
tp2341
(F0.5791279226134977
I70
tp2342
s(I0
I0
I0
I2
I1
I11
I2
tp2343
(F0.25824611101883993
I275
tp2344
s(I0
I1
I0
I3
I2
I4
I2
tp2345
(F0.8313700007923511
I2
tp2346
s(I0
I0
I1
I1
I1
I13
I3
tp2347
(F-0.12164912299938216
I14
tp2348
s(I0
I0
I1
I0
I1
I8
I2
tp2349
(F0.32547975406664126
I27
tp2350
s(I0
I1
I0
I3
I1
I4
I2
tp2351
(F0.5620429437983538
I12
tp2352
s(I0
I0
I0
I1
I1
I6
I2
tp2353
(F0.4006627074319068
I2189
tp2354
s(I0
I1
I0
I2
I1
I6
I2
tp2355
(F0.47600658162640597
I22
tp2356
s(I0
I1
I0
I2
I0
I0
I2
tp2357
(F0.30669698816340646
I80
tp2358
s(I0
I1
I1
I3
I1
I15
I4
tp2359
(F0.045119535897470565
I304
tp2360
s(I0
I0
I0
I2
I2
I2
I2
tp2361
(F0.26942311881202147
I11
tp2362
s(I0
I0
I0
I0
I1
I15
I1
tp2363
(F0.3099449753790996
I34
tp2364
s(I0
I1
I0
I1
I2
I10
I2
tp2365
(F0.644863409024899
I90
tp2366
s(I0
I0
I0
I2
I2
I18
I1
tp2367
(F0.6853221142050663
I127
tp2368
s(I0
I0
I0
I0
I2
I24
I2
tp2369
(F-0.06443427063866199
I13
tp2370
s(I0
I1
I0
I3
I2
I16
I2
tp2371
(F0.5560153978611164
I36
tp2372
s(I0
I0
I1
I2
I2
I9
I3
tp2373
(F0.4027337050147306
I268
tp2374
s(I0
I1
I0
I0
I2
I8
I2
tp2375
(F0.5917655619066151
I76
tp2376
s(I0
I0
I0
I1
I2
I14
I1
tp2377
(F0.6938270759173212
I915
tp2378
s(I0
I0
I1
I0
I2
I7
I4
tp2379
(F0.2171525461024796
I37
tp2380
s(I0
I2
I0
I1
I2
I31
I3
tp2381
(F-0.0195
I3
tp2382
s(I0
I1
I0
I2
I2
I14
I1
tp2383
(F0.7987777877771102
I81
tp2384
s(I0
I0
I0
I2
I1
I18
I4
tp2385
(F-0.1628830401489753
I26
tp2386
s(I0
I0
I1
I2
I1
I2
I4
tp2387
(F0.12543349895803252
I70
tp2388
s(I0
I1
I0
I0
I1
I3
I1
tp2389
(F0.8282334638046169
I50
tp2390
s(I0
I0
I0
I2
I1
I2
I1
tp2391
(F0.8710076028163075
I4225
tp2392
s(I0
I0
I0
I2
I2
I19
I4
tp2393
(F0.07097099506019011
I1252
tp2394
s(I1
I1
I0
I2
I1
I0
I0
tp2395
(F1.0
I1
tp2396
s(I0
I2
I0
I2
I1
I2
I4
tp2397
(F-0.01
I1
tp2398
s(I0
I0
I0
I1
I1
I15
I1
tp2399
(F0.32001753090674023
I33
tp2400
s(I0
I1
I0
I2
I1
I15
I1
tp2401
(F0.3793470555934356
I6
tp2402
s(I0
I1
I0
I3
I1
I6
I1
tp2403
(F0.694865694669783
I11
tp2404
s(I0
I0
I0
I0
I2
I25
I3
tp2405
(F-0.11163231678187222
I41
tp2406
s(I0
I0
I0
I2
I2
I11
I2
tp2407
(F0.5233740813277209
I2617
tp2408
s(I0
I1
I0
I1
I2
I19
I2
tp2409
(F0.49998866369955874
I8
tp2410
s(I0
I0
I1
I0
I2
I3
I4
tp2411
(F-0.0195
I2
tp2412
s(I0
I1
I0
I3
I2
I9
I1
tp2413
(F0.7320019323821872
I34
tp2414
s(I0
I0
I0
I0
I2
I17
I2
tp2415
(F0.5279748718846408
I933
tp2416
s(I0
I0
I1
I2
I1
I14
I4
tp2417
(F-0.15995235958458223
I53
tp2418
s(I0
I1
I0
I3
I2
I25
I2
tp2419
(F-0.05194568480647972
I2
tp2420
s(I0
I0
I1
I2
I1
I11
I3
tp2421
(F-0.12381455770119275
I6
tp2422
s(I0
I0
I0
I3
I2
I2
I1
tp2423
(F0.8774534859309118
I45
tp2424
s(I0
I1
I0
I2
I2
I9
I3
tp2425
(F0.47209006326806896
I28
tp2426
s(I0
I0
I1
I2
I2
I11
I4
tp2427
(F0.1747170099459814
I355
tp2428
s(I0
I1
I0
I0
I2
I10
I1
tp2429
(F0.8140921347655704
I183
tp2430
s(I0
I2
I0
I3
I2
I24
I4
tp2431
(F-0.04259661265618581
I5
tp2432
s(I0
I0
I1
I3
I1
I7
I3
tp2433
(F0.18708265163616689
I22
tp2434
s(I0
I1
I0
I2
I2
I12
I4
tp2435
(F0.09371021500510096
I37
tp2436
s(I0
I0
I0
I1
I2
I28
I1
tp2437
(F0.4039807907044625
I6
tp2438
s(I0
I0
I0
I3
I1
I13
I1
tp2439
(F0.39911305890909493
I117
tp2440
s(I0
I1
I1
I0
I1
I3
I3
tp2441
(F0.426566990885335
I5
tp2442
s(I0
I0
I1
I3
I2
I6
I4
tp2443
(F0.20493420697622788
I20
tp2444
s(I0
I0
I0
I1
I1
I8
I3
tp2445
(F0.19379588071307258
I871
tp2446
s(I0
I0
I1
I1
I2
I20
I1
tp2447
(F0.5984992621430162
I6
tp2448
s(I0
I0
I0
I1
I1
I13
I4
tp2449
(F0.002614626128123628
I548
tp2450
s(I0
I0
I0
I2
I2
I4
I3
tp2451
(F0.34705766838853047
I342
tp2452
s(I0
I1
I0
I1
I2
I4
I3
tp2453
(F0.3944978364526737
I25
tp2454
s(I0
I2
I0
I2
I2
I7
I2
tp2455
(F0.535090842747679
I2
tp2456
s(I0
I0
I0
I0
I1
I8
I1
tp2457
(F0.5228059905731997
I698
tp2458
s(I0
I0
I1
I2
I2
I23
I1
tp2459
(F0.6333243543674045
I3
tp2460
s(I0
I0
I0
I0
I2
I6
I3
tp2461
(F0.34470467311415914
I1752
tp2462
s(I0
I1
I1
I2
I2
I16
I4
tp2463
(F-0.04095862430854985
I5
tp2464
s(I0
I1
I0
I3
I2
I22
I3
tp2465
(F-0.05538753606950218
I7
tp2466
s(I0
I0
I1
I2
I2
I7
I4
tp2467
(F0.2177746777481239
I238
tp2468
s(I0
I1
I0
I1
I2
I17
I1
tp2469
(F0.7401211698090792
I69
tp2470
s(I0
I0
I0
I0
I2
I3
I4
tp2471
(F0.27676239299280436
I107
tp2472
s(I0
I0
I0
I0
I2
I19
I1
tp2473
(F0.6757357574593867
I270
tp2474
s(I0
I1
I0
I0
I1
I1
I4
tp2475
(F0.2997821593671435
I605
tp2476
s(I0
I0
I1
I3
I1
I5
I1
tp2477
(F0.6522715665463318
I66
tp2478
s(I0
I0
I1
I2
I1
I16
I4
tp2479
(F-0.163272760192748
I27
tp2480
s(I0
I0
I1
I0
I2
I12
I3
tp2481
(F0.365217532896863
I28
tp2482
s(I0
I1
I0
I0
I2
I20
I4
tp2483
(F-0.15590589802768154
I39
tp2484
s(I0
I0
I1
I3
I0
I0
I3
tp2485
(F-0.19475101210383847
I1044
tp2486
s(I0
I0
I0
I3
I2
I20
I1
tp2487
(F0.7012084384908644
I64
tp2488
s(I0
I0
I0
I3
I1
I18
I3
tp2489
(F-0.07301497918846497
I7
tp2490
s(I0
I0
I0
I1
I2
I18
I4
tp2491
(F0.08445365590229566
I1851
tp2492
s(I0
I0
I0
I1
I1
I17
I4
tp2493
(F-0.16728489544278463
I96
tp2494
s(I0
I0
I1
I1
I1
I13
I1
tp2495
(F0.35310819169292806
I12
tp2496
s(I0
I0
I1
I0
I1
I8
I4
tp2497
(F-0.07037781064407152
I81
tp2498
s(I0
I0
I0
I0
I2
I15
I2
tp2499
(F0.5331193170933071
I2361
tp2500
s(I0
I0
I1
I3
I2
I4
I1
tp2501
(F-0.028525000000000002
I2
tp2502
s(I0
I0
I1
I0
I1
I13
I3
tp2503
(F-0.11961741613749952
I13
tp2504
s(I0
I1
I1
I2
I2
I20
I4
tp2505
(F-0.05567392335904929
I9
tp2506
s(I0
I0
I0
I3
I2
I13
I2
tp2507
(F0.5257836311808209
I1027
tp2508
s(I0
I1
I0
I2
I0
I0
I4
tp2509
(F-0.0150592368713925
I913
tp2510
s(I0
I0
I0
I0
I2
I15
I4
tp2511
(F0.12281099099401147
I2343
tp2512
s(I0
I0
I1
I1
I2
I6
I1
tp2513
(F0.8170646892221065
I32
tp2514
s(I0
I0
I0
I0
I1
I15
I3
tp2515
(F0.03342726491102089
I38
tp2516
s(I0
I0
I0
I0
I1
I10
I4
tp2517
(F0.004052115574189576
I813
tp2518
s(I0
I1
I1
I0
I2
I8
I4
tp2519
(F-0.07619380928906666
I5
tp2520
s(I0
I0
I1
I2
I1
I9
I2
tp2521
(F0.3053553860423649
I23
tp2522
s(I0
I0
I0
I2
I2
I23
I4
tp2523
(F-0.010267832596898358
I456
tp2524
s(I0
I2
I0
I1
I2
I15
I2
tp2525
(F0.4701038518152622
I2
tp2526
s(I0
I0
I1
I2
I2
I9
I1
tp2527
(F0.6959746418578571
I178
tp2528
s(I0
I0
I0
I0
I2
I23
I3
tp2529
(F-0.11070441310616899
I42
tp2530
s(I0
I1
I0
I0
I2
I8
I4
tp2531
(F0.22401213647256807
I20
tp2532
s(I0
I0
I0
I1
I2
I14
I3
tp2533
(F0.40820741708260305
I2118
tp2534
s(I0
I1
I1
I3
I2
I9
I4
tp2535
(F-0.0195
I2
tp2536
s(I0
I1
I0
I2
I2
I14
I3
tp2537
(F0.3730798648902681
I13
tp2538
s(I0
I2
I0
I0
I1
I13
I4
tp2539
(F-0.05151759437543596
I6
tp2540
s(I0
I0
I0
I1
I2
I30
I4
tp2541
(F-0.1511342045145592
I166
tp2542
s(I0
I0
I1
I3
I2
I9
I1
tp2543
(F0.6997816572920462
I44
tp2544
s(I0
I0
I0
I2
I1
I2
I3
tp2545
(F0.35775019297852484
I3660
tp2546
s(I0
I0
I0
I1
I1
I15
I3
tp2547
(F0.08400822926162109
I93
tp2548
s(I0
I0
I1
I0
I1
I6
I2
tp2549
(F0.3859867197728813
I51
tp2550
s(I0
I1
I0
I2
I1
I15
I3
tp2551
(F-0.028104999867941474
I3
tp2552
s(I0
I2
I1
I3
I1
I14
I4
tp2553
(F-0.01
I1
tp2554
s(I0
I0
I0
I0
I1
I6
I4
tp2555
(F0.053570701835542425
I2672
tp2556
s(I0
I1
I1
I0
I2
I20
I4
tp2557
(F-0.13643995167347842
I9
tp2558
s(I0
I1
I0
I1
I2
I3
I3
tp2559
(F0.015243475450041859
I2
tp2560
s(I0
I0
I0
I2
I2
I11
I4
tp2561
(F0.17667413345332034
I4442
tp2562
s(I0
I0
I1
I3
I2
I18
I1
tp2563
(F0.785777246285658
I8
tp2564
s(I0
I0
I1
I2
I2
I16
I1
tp2565
(F0.7321986019705313
I116
tp2566
s(I0
I3
I0
I3
I2
I20
I4
tp2567
(F-0.06666514154481817
I2
tp2568
s(I0
I1
I0
I3
I2
I9
I3
tp2569
(F0.47601727565054114
I10
tp2570
s(I0
I1
I1
I2
I2
I11
I3
tp2571
(F0.3872145860418815
I2
tp2572
s(I0
I1
I0
I3
I2
I25
I4
tp2573
(F-0.13023673961586762
I22
tp2574
s(I0
I1
I1
I1
I2
I17
I1
tp2575
(F0.5219935590498118
I3
tp2576
s(I0
I0
I1
I2
I1
I11
I1
tp2577
(F0.4371235953042256
I24
tp2578
s(I1
I0
I1
I2
I1
I0
I0
tp2579
(F1.0
I1
tp2580
s(I0
I0
I1
I3
I1
I2
I1
tp2581
(F0.8246955307870486
I81
tp2582
s(I0
I0
I0
I1
I2
I12
I2
tp2583
(F0.5334165244118858
I2199
tp2584
s(I0
I1
I0
I1
I1
I5
I2
tp2585
(F0.5332627312555382
I38
tp2586
s(I0
I1
I0
I2
I2
I12
I2
tp2587
(F0.5728886645278268
I52
tp2588
s(I0
I1
I0
I0
I2
I26
I4
tp2589
(F-0.12471292681965537
I27
tp2590
s(I0
I0
I0
I3
I1
I13
I3
tp2591
(F0.10962322466637293
I88
tp2592
s(I0
I1
I1
I0
I1
I3
I1
tp2593
(F-0.0195
I2
tp2594
s(I0
I1
I1
I1
I1
I10
I4
tp2595
(F0.08954243256288728
I2304
tp2596
s(I0
I0
I1
I3
I2
I11
I1
tp2597
(F0.7013544839068078
I31
tp2598
s(I0
I0
I0
I1
I1
I13
I2
tp2599
(F0.22710371464696483
I141
tp2600
s(I0
I2
I0
I3
I1
I14
I4
tp2601
(F-0.05184607220325682
I6
tp2602
s(I0
I0
I1
I1
I2
I17
I4
tp2603
(F0.015444734180918615
I75
tp2604
s(I0
I0
I0
I0
I1
I8
I3
tp2605
(F0.2015967372225332
I540
tp2606
s(I0
I1
I1
I0
I2
I10
I1
tp2607
(F0.7052638692064511
I3
tp2608
s(I0
I1
I0
I0
I2
I33
I4
tp2609
(F-0.0370639854898101
I2
tp2610
s(I0
I0
I1
I2
I2
I18
I4
tp2611
(F-0.010510668353372457
I56
tp2612
s(I0
I1
I1
I2
I1
I2
I3
tp2613
(F0.4065150884938233
I10
tp2614
s(I0
I0
I0
I0
I2
I3
I2
tp2615
(F0.470649404502443
I223
tp2616
s(I0
I0
I0
I2
I2
I25
I4
tp2617
(F-0.09102161280821021
I312
tp2618
s(I0
I1
I0
I3
I2
I11
I2
tp2619
(F0.5966758526615905
I13
tp2620
s(I0
I1
I0
I2
I2
I7
I3
tp2621
(F0.4249244451895145
I18
tp2622
s(I0
I0
I1
I3
I1
I5
I3
tp2623
(F0.21871184399872837
I46
tp2624
s(I0
I0
I1
I0
I2
I12
I1
tp2625
(F0.7186346094571303
I93
tp2626
s(I0
I0
I0
I3
I1
I2
I2
tp2627
(F0.5563560746747702
I1855
tp2628
s(I0
I1
I0
I1
I1
I3
I3
tp2629
(F0.4304727991180536
I242
tp2630
s(I0
I0
I0
I3
I2
I20
I3
tp2631
(F0.4362834289725281
I58
tp2632
s(I0
I2
I0
I3
I2
I29
I4
tp2633
(F-0.03494391797297539
I8
tp2634
s(I0
I0
I0
I0
I1
I13
I1
tp2635
(F0.3706881058980429
I108
tp2636
s(I0
I0
I0
I3
I1
I15
I2
tp2637
(F0.23513820822218195
I36
tp2638
s(I0
I2
I0
I3
I1
I10
I4
tp2639
(F-0.14664479051884485
I5
tp2640
s(I0
I2
I0
I2
I1
I11
I4
tp2641
(F0.0004523374690531233
I9
tp2642
s(I0
I0
I0
I2
I2
I34
I4
tp2643
(F-0.09702353736530461
I47
tp2644
s(I0
I0
I1
I3
I2
I4
I3
tp2645
(F-0.04314492634698515
I5
tp2646
s(I0
I0
I1
I1
I1
I8
I4
tp2647
(F-0.035489006825265186
I146
tp2648
s(I0
I0
I1
I0
I1
I13
I1
tp2649
(F0.3574211115481657
I9
tp2650
s(I0
I2
I0
I2
I2
I12
I4
tp2651
(F-0.05098768002963589
I2
tp2652
s(I0
I0
I1
I1
I2
I6
I3
tp2653
(F0.3118926743152154
I28
tp2654
s(I0
I0
I0
I0
I2
I8
I3
tp2655
(F0.372111377812321
I2349
tp2656
s(I0
I0
I1
I1
I2
I25
I4
tp2657
(F-0.1564933973815506
I53
tp2658
s(I0
I0
I1
I1
I2
I3
I4
tp2659
(F0.03433621492677388
I2
tp2660
s(I0
I0
I0
I0
I1
I10
I2
tp2661
(F0.2924555553945744
I616
tp2662
s(I0
I0
I1
I0
I2
I16
I3
tp2663
(F-0.07523214022671174
I16
tp2664
s(I0
I0
I1
I3
I1
I12
I4
tp2665
(F-0.12931618543399265
I32
tp2666
s(I0
I2
I0
I3
I2
I17
I4
tp2667
(F-0.1467760670379424
I6
tp2668
s(I0
I0
I0
I2
I0
I0
I3
tp2669
(F-0.19868120459477476
I11562
tp2670
s(I0
I0
I0
I3
I2
I27
I2
tp2671
(F-0.0781399318149774
I39
tp2672
s(I0
I1
I0
I2
I2
I5
I4
tp2673
(F-0.07327526875765625
I6
tp2674
s(I0
I1
I0
I0
I2
I19
I2
tp2675
(F0.5260741693042867
I10
tp2676
s(I0
I0
I0
I3
I2
I6
I2
tp2677
(F0.5706602558709225
I946
tp2678
s(I0
I0
I0
I3
I1
I4
I3
tp2679
(F0.28595877303800343
I973
tp2680
s(I0
I0
I0
I1
I2
I21
I2
tp2681
(F0.4708424055478628
I54
tp2682
s(I0
I0
I0
I3
I2
I22
I2
tp2683
(F0.4526589900335622
I42
tp2684
s(I0
I0
I1
I3
I2
I32
I4
tp2685
(F-0.1426869446201829
I10
tp2686
s(I0
I0
I1
I1
I2
I31
I4
tp2687
(F-0.147770796400986
I26
tp2688
s(I0
I1
I1
I0
I2
I33
I4
tp2689
(F-0.0195
I2
tp2690
s(I0
I1
I0
I3
I1
I9
I4
tp2691
(F0.11927790487306329
I1552
tp2692
s(I0
I0
I0
I0
I1
I1
I3
tp2693
(F0.3173441374766827
I2401
tp2694
s(I0
I0
I1
I2
I2
I16
I3
tp2695
(F-0.11072536404979369
I15
tp2696
s(I0
I0
I1
I3
I2
I23
I4
tp2697
(F-0.16786150317902854
I27
tp2698
s(I0
I0
I0
I0
I2
I10
I4
tp2699
(F0.18904838595652496
I4114
tp2700
s(I0
I0
I0
I2
I2
I16
I2
tp2701
(F0.5313062068144818
I490
tp2702
s(I0
I1
I0
I1
I2
I24
I2
tp2703
(F-0.03803497468249173
I6
tp2704
s(I0
I0
I1
I0
I2
I14
I4
tp2705
(F0.12698787566179276
I110
tp2706
s(I0
I1
I1
I1
I2
I20
I4
tp2707
(F-0.046899549907658766
I6
tp2708
s(I0
I0
I1
I3
I1
I2
I3
tp2709
(F0.2995095302829459
I88
tp2710
s(I0
I0
I0
I3
I2
I13
I4
tp2711
(F0.14901775776887327
I2164
tp2712
s(I0
I0
I0
I2
I1
I16
I3
tp2713
(F0.0261439881438058
I56
tp2714
s(I0
I1
I0
I1
I1
I8
I3
tp2715
(F0.3658738647892565
I21
tp2716
s(I0
I0
I0
I3
I2
I29
I3
tp2717
(F-0.0811194153809364
I17
tp2718
s(I0
I1
I0
I0
I2
I29
I3
tp2719
(F-0.0195
I4
tp2720
s(I0
I1
I0
I2
I2
I19
I4
tp2721
(F-0.12785800500764433
I43
tp2722
s(I0
I1
I1
I0
I1
I6
I4
tp2723
(F0.1472335556443268
I2432
tp2724
s(I0
I0
I0
I3
I2
I25
I2
tp2725
(F-0.07819501258459699
I15
tp2726
s(I0
I0
I0
I2
I1
I15
I4
tp2727
(F-0.14042459846855745
I235
tp2728
s(I0
I1
I0
I3
I1
I13
I4
tp2729
(F0.05639650863759644
I246
tp2730
s(I0
I0
I1
I3
I2
I11
I3
tp2731
(F0.350496657243994
I13
tp2732
s(I0
I0
I1
I1
I1
I6
I4
tp2733
(F-0.012246027737819281
I226
tp2734
s(I0
I0
I1
I3
I2
I27
I4
tp2735
(F-0.15940830838188808
I23
tp2736
s(I0
I0
I0
I1
I1
I2
I4
tp2737
(F0.24097048599527826
I4547
tp2738
s(I0
I0
I1
I0
I2
I17
I2
tp2739
(F0.49601954805878445
I14
tp2740
s(I0
I0
I0
I0
I1
I3
I4
tp2741
(F0.12255472671070299
I3948
tp2742
s(I0
I1
I1
I1
I2
I24
I4
tp2743
(F-0.12249325218034536
I2
tp2744
s(I0
I2
I0
I2
I2
I8
I2
tp2745
(F-0.0195
I2
tp2746
s(I0
I0
I0
I3
I2
I9
I4
tp2747
(F0.1986045978821524
I1976
tp2748
s(I1
I0
I0
I3
I1
I0
I0
tp2749
(F1.0
I1
tp2750
s(I0
I1
I0
I1
I2
I14
I4
tp2751
(F0.1714576491274774
I74
tp2752
s(I0
I1
I1
I2
I2
I5
I4
tp2753
(F0.15290265545268633
I2
tp2754
s(I0
I1
I0
I2
I2
I7
I1
tp2755
(F0.8059174121937511
I48
tp2756
s(I0
I1
I0
I1
I2
I30
I3
tp2757
(F-0.035950897292498306
I4
tp2758
s(I0
I0
I0
I0
I2
I28
I4
tp2759
(F-0.15838362112006762
I176
tp2760
s(I0
I1
I0
I0
I1
I10
I1
tp2761
(F0.5951242466343857
I24
tp2762
s(I0
I1
I0
I2
I2
I23
I4
tp2763
(F-0.1497716350356817
I32
tp2764
s(I0
I2
I1
I1
I1
I11
I4
tp2765
(F-0.028104999867941474
I3
tp2766
s(I0
I1
I0
I1
I1
I3
I1
tp2767
(F0.8455711298709084
I40
tp2768
s(I0
I0
I0
I2
I1
I11
I4
tp2769
(F-0.01267067322069813
I922
tp2770
s(I0
I1
I0
I0
I2
I31
I4
tp2771
(F-0.05413240039319072
I5
tp2772
s(I0
I1
I0
I0
I2
I4
I1
tp2773
(F-0.0195
I2
tp2774
s(I0
I0
I0
I3
I2
I3
I4
tp2775
(F0.29273660342097796
I23
tp2776
s(I0
I1
I0
I0
I1
I10
I3
tp2777
(F0.37913831102502327
I17
tp2778
s(I0
I1
I1
I2
I0
I0
I3
tp2779
(F0.04178918070938618
I4
tp2780
s(I0
I0
I1
I3
I2
I9
I2
tp2781
(F0.3944188433875153
I24
tp2782
s(I0
I1
I0
I1
I2
I10
I4
tp2783
(F0.23403447790660686
I159
tp2784
s(I0
I0
I0
I0
I2
I8
I1
tp2785
(F0.6931701610056192
I1519
tp2786
s(I0
I1
I0
I3
I1
I2
I3
tp2787
(F0.4599257470446454
I189
tp2788
s(I0
I1
I1
I2
I2
I9
I4
tp2789
(F-0.0195
I2
tp2790
s(I0
I0
I0
I0
I2
I24
I4
tp2791
(F-0.02636393465484816
I265
tp2792
s(I0
I1
I1
I3
I1
I1
I4
tp2793
(F0.2940635677755042
I6
tp2794
s(I0
I0
I1
I0
I2
I23
I3
tp2795
(F-0.09232542598159763
I9
tp2796
s(I0
I1
I1
I2
I1
I12
I4
tp2797
(F0.06816186761427054
I1468
tp2798
s(I0
I2
I1
I1
I1
I15
I4
tp2799
(F-0.14919157927460674
I2
tp2800
s(I0
I0
I0
I3
I2
I11
I1
tp2801
(F0.7547177871247207
I1476
tp2802
s(I0
I1
I1
I1
I2
I10
I4
tp2803
(F-0.048764601825165316
I2
tp2804
s(I0
I0
I1
I3
I1
I11
I3
tp2805
(F-0.056508654047190535
I11
tp2806
s(I0
I0
I1
I2
I1
I2
I2
tp2807
(F0.5646760265518719
I84
tp2808
s(I0
I0
I0
I2
I0
I0
I1
tp2809
(F-0.01741002957975614
I14513
tp2810
s(I0
I0
I0
I2
I2
I28
I4
tp2811
(F-0.1616581502751115
I248
tp2812
s(I0
I1
I0
I0
I2
I19
I4
tp2813
(F-0.14407608993437765
I36
tp2814
s(I0
I2
I0
I1
I1
I5
I4
tp2815
(F-0.0195
I2
tp2816
s(I0
I1
I0
I0
I1
I4
I2
tp2817
(F0.5502247575444373
I33
tp2818
s(I0
I1
I0
I2
I2
I21
I1
tp2819
(F-0.0195
I2
tp2820
s(I0
I0
I0
I3
I1
I4
I1
tp2821
(F0.7360225906932055
I1273
tp2822
s(I0
I0
I0
I1
I2
I21
I4
tp2823
(F0.036268785020169204
I790
tp2824
s(I0
I0
I0
I2
I1
I9
I1
tp2825
(F0.5104127790772347
I685
tp2826
s(I0
I1
I1
I0
I1
I8
I4
tp2827
(F0.11345947153018018
I2933
tp2828
s(I0
I0
I0
I1
I2
I16
I3
tp2829
(F0.4042981254493448
I1000
tp2830
s(I0
I1
I0
I2
I2
I24
I3
tp2831
(F-0.05628724547703758
I6
tp2832
s(I0
I0
I1
I3
I2
I34
I4
tp2833
(F-0.1277038316923649
I4
tp2834
s(I0
I1
I0
I3
I0
I0
I1
tp2835
(F0.38855095938618767
I6
tp2836
s(I0
I0
I1
I1
I1
I15
I2
tp2837
(F-0.06886813754378193
I2
tp2838
s(I0
I0
I1
I0
I2
I35
I4
tp2839
(F-0.04423542878731441
I6
tp2840
s(I0
I0
I0
I0
I1
I17
I2
tp2841
(F0.16412939186283731
I2
tp2842
s(I0
I0
I0
I1
I1
I4
I1
tp2843
(F0.7363087527397842
I1595
tp2844
s(I0
I1
I0
I3
I1
I9
I2
tp2845
(F0.4712784303520237
I19
tp2846
s(I0
I1
I0
I2
I1
I4
I1
tp2847
(F0.7830519386249225
I49
tp2848
s(I0
I0
I0
I0
I1
I1
I1
tp2849
(F0.7073996249780901
I2916
tp2850
s(I0
I1
I1
I3
I2
I16
I1
tp2851
(F0.7344087467627763
I4
tp2852
s(I0
I2
I0
I0
I2
I9
I1
tp2853
(F0.7656244973844394
I6
tp2854
s(I0
I1
I0
I1
I2
I8
I1
tp2855
(F0.7789475410199589
I96
tp2856
s(I0
I0
I0
I2
I2
I16
I4
tp2857
(F0.10378859525561578
I2530
tp2858
s(I0
I2
I0
I1
I1
I9
I4
tp2859
(F-0.06768654754119578
I5
tp2860
s(I0
I1
I0
I3
I2
I17
I2
tp2861
(F0.5539663730808492
I5
tp2862
s(I0
I0
I0
I2
I2
I21
I3
tp2863
(F0.3333626258064158
I58
tp2864
s(I0
I1
I0
I3
I2
I18
I1
tp2865
(F0.878823360822743
I12
tp2866
s(I0
I0
I1
I2
I2
I11
I2
tp2867
(F0.5666002243358121
I307
tp2868
s(I0
I1
I0
I1
I2
I21
I3
tp2869
(F-0.09169025993016913
I8
tp2870
s(I0
I1
I0
I0
I1
I13
I1
tp2871
(F0.5455477654509817
I20
tp2872
s(I0
I2
I0
I1
I2
I12
I4
tp2873
(F0.26813840409006634
I2
tp2874
s(I0
I0
I0
I2
I1
I16
I1
tp2875
(F0.2928733232818292
I12
tp2876
s(I0
I0
I1
I3
I1
I9
I4
tp2877
(F-0.07829732864629575
I68
tp2878
s(I0
I0
I1
I2
I1
I4
I3
tp2879
(F0.2872613107790337
I97
tp2880
s(I0
I1
I0
I1
I1
I8
I1
tp2881
(F0.628307585284599
I41
tp2882
s(I0
I0
I0
I3
I2
I29
I1
tp2883
(F-0.0195
I2
tp2884
s(I0
I1
I0
I0
I2
I29
I1
tp2885
(F0.8229370020053153
I6
tp2886
s(I0
I0
I0
I0
I2
I26
I1
tp2887
(F0.4845374630382914
I17
tp2888
s(I0
I1
I0
I2
I2
I19
I2
tp2889
(F0.42208984791659165
I7
tp2890
s(I0
I0
I0
I2
I1
I15
I2
tp2891
(F0.18835166146870616
I28
tp2892
s(I0
I0
I1
I1
I1
I1
I3
tp2893
(F0.21774200309201155
I194
tp2894
s(I0
I0
I0
I1
I1
I2
I2
tp2895
(F0.5833013939906675
I4540
tp2896
s(I0
I0
I1
I1
I2
I26
I4
tp2897
(F-0.1564743929967811
I45
tp2898
s(I0
I0
I1
I3
I2
I16
I2
tp2899
(F0.5143133820986502
I13
tp2900
s(I0
I0
I0
I2
I2
I14
I2
tp2901
(F0.5485680964738051
I929
tp2902
s(I0
I1
I1
I2
I1
I18
I4
tp2903
(F0.0062289141688606185
I21
tp2904
s(I0
I2
I0
I1
I2
I25
I4
tp2905
(F-0.025509237036963884
I10
tp2906
s(I0
I0
I0
I0
I2
I33
I3
tp2907
(F-0.028525000000000002
I2
tp2908
s(I0
I0
I1
I2
I2
I29
I4
tp2909
(F-0.15710976357818776
I28
tp2910
s(I0
I0
I0
I0
I2
I28
I2
tp2911
(F-0.06335620024851973
I10
tp2912
s(I0
I0
I0
I3
I2
I4
I2
tp2913
(F0.6112521165341729
I289
tp2914
s(I0
I0
I1
I2
I2
I13
I3
tp2915
(F0.4090363179050404
I87
tp2916
s(I0
I1
I0
I0
I2
I20
I2
tp2917
(F-0.021985666703500578
I3
tp2918
s(I0
I0
I0
I1
I2
I2
I1
tp2919
(F-0.027738660135806878
I4
tp2920
s(I0
I1
I0
I0
I1
I15
I4
tp2921
(F-0.00885316065654591
I44
tp2922
s(I0
I1
I0
I2
I2
I10
I1
tp2923
(F0.8351408349692738
I125
tp2924
s(I0
I0
I0
I1
I2
I18
I2
tp2925
(F0.5547236565478667
I196
tp2926
s(I0
I1
I0
I1
I1
I6
I4
tp2927
(F0.14598326134475026
I6769
tp2928
s(I0
I2
I0
I1
I2
I30
I4
tp2929
(F-0.12635649228106793
I3
tp2930
s(I0
I0
I0
I2
I1
I6
I1
tp2931
(F0.6382048215397094
I1753
tp2932
s(I0
I0
I1
I1
I2
I22
I4
tp2933
(F-0.10072750160135073
I46
tp2934
s(I0
I0
I0
I1
I1
I11
I1
tp2935
(F0.439444022989005
I297
tp2936
s(I0
I0
I1
I0
I1
I2
I4
tp2937
(F0.06883217751269013
I82
tp2938
s(I0
I1
I0
I2
I1
I3
I1
tp2939
(F0.8244452474753081
I76
tp2940
s(I0
I0
I1
I1
I1
I3
I4
tp2941
(F0.10885132884484525
I355
tp2942
s(I0
I1
I0
I3
I1
I2
I1
tp2943
(F0.9050583151245142
I20
tp2944
s(I0
I0
I0
I2
I2
I7
I1
tp2945
(F0.7092971800559887
I690
tp2946
s(I0
I0
I1
I2
I2
I25
I4
tp2947
(F-0.15944807232354719
I59
tp2948
s(I0
I1
I0
I1
I2
I7
I1
tp2949
(F0.7590982451896301
I73
tp2950
s(I0
I2
I0
I2
I2
I17
I4
tp2951
(F-0.058104155995882166
I11
tp2952
s(I0
I0
I0
I2
I2
I23
I2
tp2953
(F0.37671025760927024
I35
tp2954
s(I0
I1
I0
I0
I2
I13
I3
tp2955
(F0.4089074373491309
I15
tp2956
s(I0
I1
I0
I1
I2
I23
I2
tp2957
(F-0.035899318049759654
I3
tp2958
s(I0
I0
I0
I0
I2
I5
I1
tp2959
(F0.7487696480185205
I1296
tp2960
s(I0
I0
I1
I1
I2
I12
I4
tp2961
(F0.14588173190163314
I135
tp2962
s(I0
I0
I0
I3
I2
I11
I3
tp2963
(F0.4297170316699649
I1858
tp2964
s(I0
I1
I0
I0
I2
I3
I3
tp2965
(F0.2885644938680204
I6
tp2966
s(I0
I1
I0
I1
I1
I10
I4
tp2967
(F0.07852239023933935
I1647
tp2968
s(I0
I2
I0
I1
I2
I18
I4
tp2969
(F-0.15389896987677576
I3
tp2970
s(I0
I1
I1
I1
I2
I13
I3
tp2971
(F-0.0195
I2
tp2972
s(I0
I0
I0
I1
I2
I5
I3
tp2973
(F0.33858765587515294
I1519
tp2974
s(I0
I0
I1
I2
I1
I15
I3
tp2975
(F-0.05231459416102739
I6
tp2976
s(I0
I0
I0
I3
I2
I6
I1
tp2977
(F0.7478275189364316
I642
tp2978
s(I0
I1
I0
I2
I2
I21
I3
tp2979
(F-0.11479240279611898
I6
tp2980
s(I0
I0
I0
I2
I2
I18
I2
tp2981
(F0.5159326777344457
I164
tp2982
s(I0
I0
I0
I2
I1
I9
I3
tp2983
(F0.19548283592769045
I757
tp2984
s(I0
I0
I0
I3
I1
I1
I4
tp2985
(F0.13648198294501376
I175
tp2986
s(I0
I0
I0
I1
I2
I16
I1
tp2987
(F0.7141624315289578
I451
tp2988
s(I0
I0
I0
I3
I1
I17
I1
tp2989
(F0.24325704962028766
I2
tp2990
s(I0
I0
I1
I1
I2
I19
I3
tp2991
(F-0.045307298806937665
I5
tp2992
s(I0
I0
I1
I0
I1
I6
I4
tp2993
(F-0.04416931843234813
I117
tp2994
s(I0
I1
I0
I1
I2
I26
I2
tp2995
(F-0.04225296832744933
I6
tp2996
s(I0
I1
I0
I3
I0
I0
I3
tp2997
(F0.21559044378101552
I67
tp2998
s(I0
I0
I1
I1
I1
I15
I4
tp2999
(F-0.16521584554187627
I37
tp3000
s(I0
I0
I0
I1
I1
I4
I3
tp3001
(F0.2824956946207064
I1733
tp3002
s(I0
I0
I1
I1
I1
I10
I3
tp3003
(F-0.12614279806312734
I14
tp3004
s(I0
I1
I0
I2
I1
I4
I3
tp3005
(F0.4013656425052352
I38
tp3006
s(I0
I2
I0
I1
I1
I3
I4
tp3007
(F0.09895901298407705
I2
tp3008
s(I0
I0
I1
I1
I2
I8
I4
tp3009
(F0.1794281200450779
I121
tp3010
s(I0
I1
I0
I2
I1
I1
I4
tp3011
(F0.3114703769706555
I519
tp3012
s(I0
I0
I0
I0
I2
I18
I3
tp3013
(F0.42623822943923806
I193
tp3014
s(I0
I1
I1
I0
I2
I30
I4
tp3015
(F-0.028525000000000002
I2
tp3016
s(I0
I1
I0
I1
I2
I8
I3
tp3017
(F0.4905757916668589
I91
tp3018
s(I0
I0
I0
I2
I2
I5
I4
tp3019
(F0.22888580662533056
I675
tp3020
s(I0
I0
I0
I0
I1
I12
I1
tp3021
(F0.3946666558329192
I285
tp3022
s(I0
I0
I0
I0
I2
I26
I3
tp3023
(F-0.10920621117507086
I23
tp3024
s(I0
I0
I0
I1
I0
I0
I4
tp3025
(F-0.1998092852414273
I11341
tp3026
s(I0
I0
I0
I2
I2
I21
I1
tp3027
(F0.6373176023807815
I45
tp3028
s(I0
I1
I0
I3
I2
I18
I3
tp3029
(F-0.05148544627664705
I10
tp3030
s(I0
I0
I0
I1
I2
I12
I4
tp3031
(F0.15867704888599757
I5893
tp3032
s(I0
I0
I1
I0
I2
I5
I1
tp3033
(F0.6458060551841164
I6
tp3034
s(I0
I1
I0
I0
I1
I13
I3
tp3035
(F0.15734736900426016
I7
tp3036
s(I0
I1
I0
I3
I2
I23
I4
tp3037
(F-0.12907125038293282
I29
tp3038
s(I0
I0
I1
I2
I2
I6
I3
tp3039
(F0.34102811146984296
I129
tp3040
s(I0
I0
I0
I0
I2
I23
I1
tp3041
(F0.5973984881443807
I46
tp3042
s(I0
I0
I1
I2
I1
I4
I1
tp3043
(F0.693195287947409
I87
tp3044
s(I0
I1
I1
I1
I2
I15
I4
tp3045
(F-0.11309441014800291
I9
tp3046
s(I0
I0
I0
I3
I2
I24
I4
tp3047
(F-0.07044747159053483
I322
tp3048
s(I0
I1
I0
I0
I2
I8
I3
tp3049
(F0.41337507432481374
I24
tp3050
s(I0
I1
I1
I3
I1
I1
I2
tp3051
(F-0.0195
I2
tp3052
s(I0
I1
I1
I0
I1
I13
I4
tp3053
(F0.05889335977698995
I971
tp3054
s(I0
I0
I1
I0
I2
I30
I3
tp3055
(F-0.055906243847267695
I7
tp3056
s(I0
I0
I1
I0
I1
I4
I1
tp3057
(F0.6747664926946506
I95
tp3058
s(I0
I1
I0
I2
I1
I13
I4
tp3059
(F0.05251483199658069
I291
tp3060
s(I0
I0
I1
I1
I1
I1
I1
tp3061
(F0.7272031370550893
I305
tp3062
s(I0
I0
I1
I0
I1
I9
I3
tp3063
(F-0.13541655658284762
I24
tp3064
s(I0
I0
I1
I3
I2
I16
I4
tp3065
(F0.0003363536245769329
I71
tp3066
s(I0
I0
I1
I1
I2
I10
I1
tp3067
(F0.7623698751510042
I94
tp3068
s(I0
I1
I0
I3
I2
I11
I4
tp3069
(F-0.0677639828573452
I23
tp3070
s(I0
I0
I1
I2
I2
I29
I2
tp3071
(F-0.035950897292498306
I4
tp3072
s(I0
I1
I0
I0
I2
I4
I3
tp3073
(F-0.0025849888158261947
I4
tp3074
s(I0
I0
I1
I2
I1
I13
I2
tp3075
(F0.2314782196184032
I15
tp3076
s(I0
I0
I0
I3
I2
I4
I4
tp3077
(F0.2974147441420682
I110
tp3078
s(I0
I2
I0
I1
I2
I11
I2
tp3079
(F0.4364306490400389
I4
tp3080
s(I0
I0
I1
I2
I2
I13
I1
tp3081
(F0.7064714395622064
I134
tp3082
s(I0
I1
I0
I1
I2
I27
I4
tp3083
(F-0.12128805860035427
I25
tp3084
s(I0
I0
I0
I1
I2
I2
I3
tp3085
(F0.1409736960197233
I9
tp3086
s(I0
I0
I1
I0
I2
I11
I2
tp3087
(F0.5023629446553051
I27
tp3088
s(I0
I1
I0
I2
I2
I10
I3
tp3089
(F0.47931388612348624
I30
tp3090
s(I0
I1
I1
I1
I1
I4
I4
tp3091
(F0.20219180921851554
I1392
tp3092
s(I0
I1
I0
I2
I2
I26
I4
tp3093
(F-0.11938282893464193
I24
tp3094
s(I0
I0
I0
I2
I1
I6
I3
tp3095
(F0.25045583654740783
I1921
tp3096
s(I0
I0
I0
I3
I1
I15
I4
tp3097
(F-0.1328093701691927
I211
tp3098
s(I0
I1
I1
I0
I1
I1
I4
tp3099
(F0.29244992728047353
I22
tp3100
s(I0
I0
I0
I0
I2
I21
I2
tp3101
(F0.47041464330928934
I71
tp3102
s(I0
I1
I1
I1
I0
I0
I3
tp3103
(F0.10311811276589397
I6
tp3104
s(I0
I0
I1
I1
I1
I8
I2
tp3105
(F0.29833808265904294
I24
tp3106
s(I0
I0
I0
I1
I1
I11
I3
tp3107
(F0.13809880127853538
I337
tp3108
s(I0
I0
I0
I2
I2
I20
I2
tp3109
(F0.48795926944465967
I75
tp3110
s(I0
I2
I1
I2
I1
I11
I4
tp3111
(F-0.028989944731544107
I6
tp3112
s(I0
I1
I0
I2
I1
I3
I3
tp3113
(F0.43368670768078105
I139
tp3114
s(I0
I0
I0
I2
I2
I7
I3
tp3115
(F0.3749970881105183
I1537
tp3116
s(I0
I1
I0
I1
I2
I7
I3
tp3117
(F0.4552460765546373
I85
tp3118
s(I0
I1
I0
I3
I1
I18
I4
tp3119
(F-0.09147000878883829
I3
tp3120
s(I0
I0
I1
I2
I2
I20
I1
tp3121
(F0.6532394217267133
I11
tp3122
s(I0
I1
I0
I1
I2
I23
I4
tp3123
(F-0.07331098611822912
I29
tp3124
s(I0
I0
I0
I0
I2
I5
I3
tp3125
(F0.3401964009616193
I1463
tp3126
s(I0
I0
I1
I1
I2
I12
I2
tp3127
(F0.43214735871456567
I12
tp3128
s(I0
I0
I1
I0
I2
I18
I4
tp3129
(F0.012652914118822106
I76
tp3130
s(I1
I0
I1
I1
I2
I0
I0
tp3131
(F1.0
I1
tp3132
s(I0
I0
I0
I0
I2
I21
I4
tp3133
(F0.04459642855791987
I526
tp3134
s(I0
I1
I1
I3
I1
I14
I4
tp3135
(F0.049088416750634814
I564
tp3136
s(I0
I1
I0
I2
I2
I5
I2
tp3137
(F0.004367191522881064
I3
tp3138
s(I0
I1
I0
I0
I2
I6
I2
tp3139
(F0.620383703453082
I23
tp3140
s(I0
I0
I1
I2
I1
I15
I1
tp3141
(F0.33131364578339006
I2
tp3142
s(I0
I0
I1
I3
I1
I6
I1
tp3143
(F0.6266766463551128
I60
tp3144
s(I0
I1
I0
I1
I1
I1
I2
tp3145
(F0.46627185146750577
I523
tp3146
s(I0
I0
I0
I3
I2
I22
I4
tp3147
(F-0.008261708744774214
I404
tp3148
s(I0
I1
I0
I2
I2
I8
I2
tp3149
(F0.6023689636030101
I46
tp3150
s(I0
I2
I0
I3
I2
I27
I3
tp3151
(F-0.05098768002963589
I2
tp3152
s(I0
I0
I0
I2
I1
I4
I2
tp3153
(F0.4793074901552184
I1638
tp3154
s(I0
I0
I0
I3
I1
I17
I3
tp3155
(F-0.02399014598083514
I15
tp3156
s(I0
I1
I1
I0
I1
I15
I1
tp3157
(F-0.0195
I2
tp3158
s(I0
I0
I0
I0
I2
I22
I2
tp3159
(F-0.05246643532201476
I16
tp3160
s(I0
I0
I1
I1
I1
I10
I1
tp3161
(F0.45160863388799644
I34
tp3162
s(I0
I0
I1
I0
I1
I11
I2
tp3163
(F0.21235825310353387
I8
tp3164
s(I0
I0
I1
I3
I2
I7
I1
tp3165
(F0.6733898018883703
I20
tp3166
s(I0
I0
I0
I1
I1
I9
I2
tp3167
(F0.3283478141378943
I885
tp3168
s(I0
I1
I0
I2
I1
I1
I2
tp3169
(F0.4857689936924177
I302
tp3170
s(I0
I0
I0
I0
I2
I10
I2
tp3171
(F0.5100311457679708
I2381
tp3172
s(I0
I0
I1
I1
I2
I5
I1
tp3173
(F0.7271098558478014
I11
tp3174
s(I0
I0
I0
I2
I2
I5
I2
tp3175
(F0.4986301733561716
I383
tp3176
s(I0
I0
I0
I0
I1
I12
I3
tp3177
(F0.13506807479775806
I141
tp3178
s(I0
I1
I1
I0
I2
I14
I1
tp3179
(F-0.01
I1
tp3180
s(I0
I1
I1
I2
I1
I11
I4
tp3181
(F0.09007751324365836
I1921
tp3182
s(I0
I1
I0
I1
I2
I5
I2
tp3183
(F0.07423504127357648
I2
tp3184
s(I0
I1
I1
I2
I2
I12
I2
tp3185
(F-0.01
I1
tp3186
s(I0
I0
I0
I0
I2
I7
I2
tp3187
(F0.49450955667383206
I3208
tp3188
s(I0
I2
I0
I3
I2
I15
I4
tp3189
(F-0.059648646295574564
I12
tp3190
s(I0
I0
I1
I0
I2
I5
I3
tp3191
(F0.08572932318642276
I20
tp3192
s(I0
I1
I0
I3
I2
I23
I2
tp3193
(F-0.0486929639280561
I7
tp3194
s(I0
I0
I1
I2
I2
I6
I1
tp3195
(F0.6936439325268652
I116
tp3196
s(I0
I0
I0
I1
I2
I11
I3
tp3197
(F0.42252222219857344
I3691
tp3198
s(I0
I0
I1
I2
I1
I1
I4
tp3199
(F0.08322909489288088
I9
tp3200
s(I0
I2
I0
I1
I2
I23
I4
tp3201
(F-0.050512369184171714
I5
tp3202
s(I0
I0
I0
I3
I1
I6
I2
tp3203
(F0.388128648997628
I745
tp3204
s(I0
I1
I1
I3
I2
I14
I4
tp3205
(F-0.0931891418402028
I12
tp3206
s(I0
I1
I1
I2
I2
I21
I4
tp3207
(F-0.05747260887187623
I5
tp3208
s(I0
I0
I1
I0
I1
I4
I3
tp3209
(F0.24986004291719718
I42
tp3210
s(I0
I1
I0
I0
I2
I7
I3
tp3211
(F0.4162452602792202
I44
tp3212
s(I0
I0
I0
I1
I1
I18
I3
tp3213
(F-0.056730398958809554
I6
tp3214
s(I0
I1
I0
I2
I1
I10
I3
tp3215
(F0.34830301830061117
I8
tp3216
s(I0
I0
I0
I3
I2
I33
I2
tp3217
(F-0.05764867056660244
I4
tp3218
s(I0
I0
I1
I0
I1
I9
I1
tp3219
(F0.4862214868826294
I35
tp3220
s(I0
I0
I0
I0
I1
I3
I2
tp3221
(F0.5750359141121447
I1819
tp3222
s(I0
I0
I1
I3
I2
I5
I4
tp3223
(F0.1372143703508675
I7
tp3224
s(I0
I0
I1
I1
I2
I10
I3
tp3225
(F0.38876415401707126
I33
tp3226
s(I0
I0
I1
I0
I0
I0
I4
tp3227
(F-0.19971970958491983
I879
tp3228
s(I0
I1
I1
I2
I1
I5
I2
tp3229
(F-0.0195
I2
tp3230
s(I0
I0
I0
I0
I2
I12
I3
tp3231
(F0.41919985500101214
I1991
tp3232
s(I0
I0
I1
I0
I2
I28
I4
tp3233
(F-0.16463640654829875
I21
tp3234
s(I0
I1
I0
I3
I2
I12
I3
tp3235
(F0.4437036428860216
I12
tp3236
s(I0
I0
I1
I2
I1
I13
I4
tp3237
(F-0.1379984398962008
I25
tp3238
s(I0
I0
I1
I3
I1
I14
I2
tp3239
(F0.07555880302724306
I12
tp3240
s(I0
I0
I1
I2
I2
I8
I4
tp3241
(F0.21360109190479426
I405
tp3242
s(I0
I0
I0
I1
I2
I9
I4
tp3243
(F0.19773819721219835
I5024
tp3244
s(I0
I0
I0
I3
I2
I31
I2
tp3245
(F-0.0719257661604443
I5
tp3246
s(I0
I0
I0
I3
I1
I8
I3
tp3247
(F0.1928770239864225
I338
tp3248
s(I0
I1
I1
I0
I1
I4
I1
tp3249
(F-0.0195
I2
tp3250
s(I0
I1
I1
I1
I1
I9
I2
tp3251
(F0.38318019999172165
I3
tp3252
s(I0
I0
I1
I3
I1
I11
I1
tp3253
(F0.4135292097897274
I11
tp3254
s(I0
I0
I1
I3
I2
I9
I4
tp3255
(F0.17772657825392651
I93
tp3256
s(I0
I3
I0
I1
I2
I22
I4
tp3257
(F-0.16814046375442762
I2
tp3258
s(I0
I0
I1
I0
I2
I19
I2
tp3259
(F-0.08263018554774551
I3
tp3260
s(I0
I1
I0
I0
I0
I0
I4
tp3261
(F-0.01338506406459832
I887
tp3262
s(I0
I1
I0
I2
I1
I8
I4
tp3263
(F0.12573786483698582
I3278
tp3264
s(I0
I0
I0
I0
I1
I5
I3
tp3265
(F0.2844539175620802
I1004
tp3266
s(I0
I0
I1
I2
I2
I20
I3
tp3267
(F-0.048558473574670434
I7
tp3268
s(I0
I0
I1
I2
I2
I4
I4
tp3269
(F0.2573140545536706
I24
tp3270
s(I0
I0
I0
I2
I2
I28
I2
tp3271
(F-0.06687800349327845
I22
tp3272
s(I0
I1
I0
I3
I2
I14
I4
tp3273
(F-0.059458565283987845
I48
tp3274
s(I0
I2
I0
I2
I2
I31
I3
tp3275
(F-0.0195
I2
tp3276
s(I0
I1
I0
I0
I1
I4
I4
tp3277
(F0.19073585167293336
I6905
tp3278
s(I0
I0
I1
I3
I1
I6
I3
tp3279
(F0.16785351869035126
I33
tp3280
s(I0
I1
I0
I1
I1
I1
I4
tp3281
(F0.30459479473784706
I803
tp3282
s(I0
I1
I0
I0
I2
I9
I4
tp3283
(F0.22245566867474406
I32
tp3284
s(I0
I1
I1
I1
I1
I6
I3
tp3285
(F-0.052579777364150704
I9
tp3286
s(I0
I1
I0
I1
I1
I4
I3
tp3287
(F0.41382023381671373
I49
tp3288
s(I0
I0
I0
I3
I2
I17
I3
tp3289
(F0.4348351783436381
I348
tp3290
s(I0
I1
I0
I0
I2
I25
I3
tp3291
(F-0.0859121313982894
I4
tp3292
s(I0
I0
I0
I1
I2
I31
I4
tp3293
(F-0.1503322264900383
I127
tp3294
s(I0
I1
I0
I0
I2
I22
I4
tp3295
(F-0.13621657182044009
I21
tp3296
s(I0
I1
I0
I0
I0
I0
I3
tp3297
(F0.17041287938994443
I106
tp3298
s(I0
I1
I1
I1
I1
I11
I1
tp3299
(F0.5512553011844016
I2
tp3300
s(I0
I0
I0
I0
I1
I17
I4
tp3301
(F-0.16264803578311315
I134
tp3302
s(I0
I0
I1
I0
I1
I11
I4
tp3303
(F-0.13893598637732327
I42
tp3304
s(I0
I0
I1
I3
I2
I7
I3
tp3305
(F0.3424807147768979
I23
tp3306
s(I0
I0
I1
I1
I2
I5
I3
tp3307
(F0.3052778701166852
I13
tp3308
s(I1
I0
I0
I0
I2
I0
I0
tp3309
(F1.0
I1
tp3310
s(I0
I1
I0
I3
I2
I7
I3
tp3311
(F0.09331041598685683
I10
tp3312
s(I0
I1
I1
I0
I2
I11
I4
tp3313
(F-0.11358261169548389
I4
tp3314
s(I0
I0
I0
I2
I2
I10
I4
tp3315
(F0.1869697376886179
I4480
tp3316
s(I0
I1
I0
I0
I2
I13
I4
tp3317
(F0.046225082209550315
I47
tp3318
s(I0
I0
I0
I1
I2
I11
I1
tp3319
(F0.7885647175239393
I3959
tp3320
s(I0
I1
I1
I3
I2
I10
I4
tp3321
(F-0.06436446110949655
I16
tp3322
s(I0
I1
I0
I2
I2
I3
I1
tp3323
(F0.8040340828618069
I8
tp3324
s(I0
I2
I0
I0
I1
I14
I4
tp3325
(F-0.14767202339939922
I3
tp3326
s(I0
I0
I0
I1
I2
I27
I4
tp3327
(F-0.0985981650049591
I247
tp3328
s(I0
I2
I1
I0
I1
I14
I4
tp3329
(F-0.06464514503515681
I8
tp3330
s(I0
I1
I0
I0
I1
I6
I1
tp3331
(F0.676599270142769
I23
tp3332
s(I0
I1
I0
I3
I2
I24
I4
tp3333
(F-0.14110763285089278
I25
tp3334
s(I0
I0
I0
I3
I1
I6
I4
tp3335
(F0.06347907457747276
I2502
tp3336
s(I0
I0
I1
I3
I1
I4
I2
tp3337
(F0.4327001049675773
I74
tp3338
s(I0
I0
I1
I2
I1
I17
I3
tp3339
(F-0.06079032344847492
I5
tp3340
s(I0
I0
I0
I3
I1
I3
I3
tp3341
(F0.33352563548735603
I1365
tp3342
s(I0
I0
I0
I3
I2
I19
I4
tp3343
(F0.04942623177765377
I645
tp3344
s(I0
I0
I0
I1
I1
I18
I1
tp3345
(F0.12081043994860084
I2
tp3346
s(I1
I0
I0
I0
I0
I0
I0
tp3347
(F1.0
I1
tp3348
s(I0
I1
I0
I2
I1
I10
I1
tp3349
(F0.5928651842061936
I27
tp3350
s(I0
I1
I0
I3
I1
I11
I1
tp3351
(F0.5397388838145561
I7
tp3352
s(I0
I0
I1
I3
I2
I5
I2
tp3353
(F-0.0195
I2
tp3354
s(I0
I0
I0
I2
I2
I14
I4
tp3355
(F0.12852579911556491
I3725
tp3356
s(I0
I0
I0
I0
I2
I12
I1
tp3357
(F0.7139642902630409
I1935
tp3358
s(I0
I0
I1
I1
I2
I7
I2
tp3359
(F0.5164706459043186
I30
tp3360
s(I0
I1
I0
I3
I2
I12
I1
tp3361
(F0.7600783073629886
I95
tp3362
s(I0
I1
I0
I3
I2
I28
I4
tp3363
(F-0.13598955734559448
I22
tp3364
s(I0
I0
I1
I3
I0
I0
I1
tp3365
(F-0.1396671371015478
I317
tp3366
s(I0
I0
I0
I3
I2
I15
I1
tp3367
(F0.7443700299813473
I744
tp3368
s(I0
I1
I0
I0
I2
I15
I1
tp3369
(F0.7519636935600852
I103
tp3370
s(I0
I0
I1
I2
I1
I6
I2
tp3371
(F0.3782648512672418
I40
tp3372
s(I0
I1
I0
I1
I1
I6
I2
tp3373
(F0.47673446691079313
I32
tp3374
s(I0
I0
I0
I3
I2
I31
I4
tp3375
(F-0.14880157324270862
I137
tp3376
s(I0
I1
I0
I1
I2
I32
I4
tp3377
(F-0.11784580372775175
I13
tp3378
s(I0
I0
I0
I1
I2
I25
I1
tp3379
(F0.42627816150642595
I7
tp3380
s(I0
I0
I0
I3
I2
I26
I3
tp3381
(F-0.09473257428043474
I22
tp3382
s(I0
I1
I0
I2
I2
I17
I1
tp3383
(F0.726886722824649
I13
tp3384
s(I0
I0
I0
I3
I1
I8
I1
tp3385
(F0.5303333049297934
I556
tp3386
s(I0
I0
I0
I0
I2
I34
I4
tp3387
(F-0.12248209793405165
I21
tp3388
s(I0
I1
I1
I1
I1
I9
I4
tp3389
(F0.11332563595107249
I2591
tp3390
s(I0
I1
I0
I2
I2
I33
I4
tp3391
(F-0.0934053379221732
I2
tp3392
s(I0
I0
I0
I2
I1
I13
I1
tp3393
(F0.36333510275558106
I85
tp3394
s(I0
I0
I0
I1
I2
I20
I3
tp3395
(F0.3793263820593425
I125
tp3396
s(I0
I0
I1
I3
I2
I14
I3
tp3397
(F0.28217219460574094
I14
tp3398
s(I0
I0
I1
I1
I1
I3
I2
tp3399
(F0.5431442596324249
I154
tp3400
s(I0
I2
I0
I3
I1
I9
I4
tp3401
(F0.036608522745182726
I4
tp3402
s(I0
I2
I0
I2
I1
I4
I4
tp3403
(F-0.01
I1
tp3404
s(I0
I2
I1
I2
I1
I16
I4
tp3405
(F-0.0370639854898101
I2
tp3406
s(I0
I0
I0
I0
I1
I5
I1
tp3407
(F0.6713176465160541
I848
tp3408
s(I0
I0
I0
I2
I2
I12
I1
tp3409
(F0.7154683610849573
I1195
tp3410
s(I0
I2
I1
I0
I2
I27
I4
tp3411
(F-0.020249745642940603
I4
tp3412
s(I0
I1
I0
I1
I2
I12
I1
tp3413
(F0.7727750037944446
I95
tp3414
s(I0
I2
I0
I2
I2
I15
I4
tp3415
(F-0.06485070671571365
I12
tp3416
s(I0
I1
I0
I1
I2
I28
I4
tp3417
(F-0.1263986807935619
I20
tp3418
s(I0
I0
I0
I2
I2
I17
I3
tp3419
(F0.40329156461120097
I502
tp3420
s(I0
I0
I1
I2
I2
I15
I2
tp3421
(F0.532304014706332
I129
tp3422
s(I0
I1
I0
I1
I2
I25
I3
tp3423
(F-0.1114244280671906
I2
tp3424
s(I0
I0
I0
I2
I2
I18
I3
tp3425
(F0.39948055951560973
I270
tp3426
s(I0
I1
I0
I0
I1
I9
I1
tp3427
(F0.611435214366234
I41
tp3428
s(I0
I0
I0
I3
I1
I1
I2
tp3429
(F0.4526120293236409
I2622
tp3430
s(I0
I1
I0
I0
I2
I9
I2
tp3431
(F0.6187103498744843
I185
tp3432
s(I0
I1
I0
I1
I1
I4
I1
tp3433
(F0.7642456973615828
I30
tp3434
s(I0
I0
I0
I3
I2
I17
I1
tp3435
(F0.7502528742234394
I451
tp3436
s(I0
I2
I1
I0
I2
I33
I4
tp3437
(F-0.01
I1
tp3438
s(I0
I1
I0
I0
I2
I25
I1
tp3439
(F-0.030242378274605866
I4
tp3440
s(I0
I2
I0
I3
I2
I30
I4
tp3441
(F-0.029647608991594042
I4
tp3442
s(I0
I0
I0
I3
I2
I33
I4
tp3443
(F-0.14481599906216677
I95
tp3444
s(I0
I1
I0
I0
I0
I0
I1
tp3445
(F0.3873670022782398
I56
tp3446
s(I0
I0
I1
I2
I2
I17
I2
tp3447
(F0.5282953330342813
I52
tp3448
s(I0
I0
I0
I2
I2
I32
I3
tp3449
(F-0.061316622984085335
I8
tp3450
s(I0
I2
I0
I2
I1
I8
I4
tp3451
(F-0.043280867006059556
I5
tp3452
s(I0
I2
I1
I2
I1
I12
I4
tp3453
(F-0.035899318049759654
I3
tp3454
s(I0
I1
I0
I0
I2
I13
I2
tp3455
(F0.595378540755553
I131
tp3456
s(I0
I1
I0
I3
I1
I12
I1
tp3457
(F0.5247344460856469
I3
tp3458
s(I0
I0
I1
I3
I2
I12
I4
tp3459
(F0.12725190953924662
I92
tp3460
s(I0
I0
I1
I1
I1
I5
I3
tp3461
(F0.2233957596196628
I64
tp3462
s(I0
I0
I1
I0
I1
I16
I2
tp3463
(F-0.0195
I2
tp3464
s(I0
I0
I0
I1
I0
I0
I2
tp3465
(F-0.19305007403001054
I15423
tp3466
s(I0
I0
I1
I0
I2
I21
I4
tp3467
(F-0.1692470644998583
I53
tp3468
s(I0
I1
I0
I3
I2
I7
I1
tp3469
(F0.7237269621854522
I16
tp3470
s(I0
I0
I0
I2
I2
I10
I2
tp3471
(F0.542720607516842
I1826
tp3472
s(I0
I2
I0
I0
I2
I19
I4
tp3473
(F-0.04137600208582432
I11
tp3474
s(I0
I1
I0
I1
I2
I18
I2
tp3475
(F0.42656911815520504
I5
tp3476
s(I0
I0
I0
I2
I2
I26
I1
tp3477
(F-0.06073198395557315
I8
tp3478
s(I0
I0
I0
I3
I2
I8
I1
tp3479
(F0.7255721076661903
I1290
tp3480
s(I0
I0
I0
I0
I2
I16
I2
tp3481
(F0.5233233152538455
I584
tp3482
s(I0
I0
I1
I1
I2
I35
I4
tp3483
(F-0.14984273511629262
I2
tp3484
s(I0
I1
I0
I0
I1
I6
I3
tp3485
(F0.38749478203173154
I19
tp3486
s(I0
I1
I0
I3
I2
I24
I2
tp3487
(F-0.0379660567954842
I5
tp3488
s(I0
I1
I0
I2
I2
I6
I4
tp3489
(F0.2600122135227573
I13
tp3490
s(I0
I1
I0
I0
I2
I16
I2
tp3491
(F0.5636643677388254
I36
tp3492
s(I0
I0
I0
I1
I2
I6
I1
tp3493
(F0.6906729147107682
I684
tp3494
s(I0
I0
I1
I0
I2
I15
I4
tp3495
(F0.0980229207391668
I103
tp3496
s(I0
I1
I0
I2
I2
I22
I1
tp3497
(F0.015008184679683024
I2
tp3498
s(I0
I0
I0
I3
I1
I3
I1
tp3499
(F0.8318323840126564
I1828
tp3500
s(I0
I0
I0
I1
I2
I22
I2
tp3501
(F0.3931723746468135
I29
tp3502
s(I0
I0
I0
I1
I1
I16
I4
tp3503
(F-0.1588727851320205
I137
tp3504
s(I0
I0
I0
I2
I1
I10
I1
tp3505
(F0.4544248574700078
I547
tp3506
s(I0
I0
I1
I2
I2
I5
I4
tp3507
(F0.22743379608202655
I105
tp3508
s(I0
I0
I1
I1
I1
I17
I4
tp3509
(F-0.16538038296692792
I14
tp3510
s(I0
I1
I0
I3
I1
I11
I3
tp3511
(F-0.05159455898388912
I3
tp3512
s(I0
I0
I0
I1
I1
I7
I1
tp3513
(F0.5893293850932911
I960
tp3514
s(I0
I1
I0
I3
I1
I14
I4
tp3515
(F0.0026991521948371983
I124
tp3516
s(I0
I1
I0
I2
I1
I7
I1
tp3517
(F0.6472574116771254
I35
tp3518
s(I0
I1
I1
I1
I1
I1
I3
tp3519
(F0.3450524807591883
I239
tp3520
s(I0
I0
I0
I2
I2
I3
I1
tp3521
(F0.6586918232997315
I19
tp3522
s(I0
I0
I1
I3
I2
I26
I4
tp3523
(F-0.16266525343399008
I9
tp3524
s(I0
I1
I0
I1
I2
I11
I1
tp3525
(F0.8825061099973303
I202
tp3526
s(I0
I0
I0
I0
I2
I9
I4
tp3527
(F0.20070977500045328
I4051
tp3528
s(I0
I2
I0
I1
I2
I10
I2
tp3529
(F-0.0195
I2
tp3530
s(I0
I0
I0
I2
I2
I19
I2
tp3531
(F0.5036091451447746
I128
tp3532
s(I0
I0
I0
I0
I2
I25
I1
tp3533
(F0.20189010812370964
I13
tp3534
s(I0
I0
I1
I0
I2
I11
I4
tp3535
(F0.16902581980131645
I125
tp3536
s(I0
I0
I0
I3
I2
I15
I3
tp3537
(F0.4303240260209172
I689
tp3538
s(I0
I1
I0
I3
I2
I17
I1
tp3539
(F0.6956873535813843
I7
tp3540
s(I0
I1
I1
I1
I2
I25
I4
tp3541
(F-0.1388600559856999
I2
tp3542
s(I0
I0
I1
I3
I1
I15
I1
tp3543
(F0.3482429646336332
I2
tp3544
s(I0
I0
I1
I2
I1
I6
I4
tp3545
(F0.057806950063760944
I128
tp3546
s(I0
I0
I0
I3
I2
I10
I4
tp3547
(F0.2085684332087252
I2531
tp3548
s(I0
I0
I0
I1
I2
I25
I3
tp3549
(F-0.08117204491127225
I54
tp3550
s(I0
I0
I1
I2
I1
I3
I3
tp3551
(F0.33275967992651284
I122
tp3552
s(I0
I0
I0
I3
I2
I26
I1
tp3553
(F-0.0195
I3
tp3554
s(I0
I1
I0
I2
I2
I17
I3
tp3555
(F0.3308299267152348
I14
tp3556
s(I0
I1
I0
I0
I2
I18
I1
tp3557
(F0.7254642917507297
I18
tp3558
s(I0
I0
I0
I2
I1
I13
I3
tp3559
(F0.11614953477912686
I162
tp3560
s(I0
I0
I0
I1
I2
I20
I1
tp3561
(F0.6615748097799807
I82
tp3562
s(I0
I0
I0
I2
I1
I8
I4
tp3563
(F0.03223314560388656
I2520
tp3564
s(I0
I0
I1
I3
I2
I14
I1
tp3565
(F0.7496438198707285
I100
tp3566
s(I0
I0
I1
I3
I2
I30
I4
tp3567
(F-0.1489340216338073
I36
tp3568
s(I0
I0
I1
I1
I1
I14
I3
tp3569
(F-0.11508346033818968
I6
tp3570
s(I0
I0
I1
I1
I2
I17
I2
tp3571
(F0.6661665208517163
I25
tp3572
s(I1
I0
I0
I2
I1
I0
I0
tp3573
(F1.0
I1
tp3574
s(I0
I0
I0
I1
I1
I5
I4
tp3575
(F0.16927797822261406
I6338
tp3576
s(I0
I0
I0
I1
I2
I5
I4
tp3577
(F0.2256863980088338
I1105
tp3578
s(I0
I0
I1
I0
I2
I18
I2
tp3579
(F0.31940821904876804
I11
tp3580
s(I0
I1
I1
I1
I2
I29
I4
tp3581
(F-0.0366997498745444
I2
tp3582
s(I0
I1
I0
I1
I2
I12
I3
tp3583
(F0.43834984902858215
I58
tp3584
s(I0
I0
I0
I1
I2
I32
I2
tp3585
(F-0.05085574677749106
I2
tp3586
s(I0
I0
I0
I0
I2
I30
I3
tp3587
(F-0.04953292774115276
I22
tp3588
s(I0
I0
I0
I2
I2
I17
I1
tp3589
(F0.7118716334173115
I323
tp3590
s(I0
I0
I1
I2
I2
I15
I4
tp3591
(F0.12497844221197436
I141
tp3592
s(I0
I0
I0
I0
I2
I27
I4
tp3593
(F-0.1457152387529969
I197
tp3594
s(I0
I3
I0
I2
I2
I15
I4
tp3595
(F-0.10997922947447407
I2
tp3596
s(I0
I0
I1
I0
I2
I9
I1
tp3597
(F0.7643528640300863
I178
tp3598
s(I0
I1
I0
I0
I1
I9
I3
tp3599
(F0.27979634861579
I19
tp3600
s(I0
I1
I0
I2
I2
I8
I4
tp3601
(F0.003877448595015792
I19
tp3602
s(I0
I0
I1
I2
I2
I10
I3
tp3603
(F0.4575425323707765
I100
tp3604
s(I0
I2
I1
I1
I1
I12
I4
tp3605
(F-0.0195
I3
tp3606
s(I0
I0
I0
I2
I1
I4
I4
tp3607
(F0.07653781451779375
I4908
tp3608
s(I0
I1
I1
I0
I0
I0
I4
tp3609
(F-0.048130934592861996
I27
tp3610
s(I0
I1
I0
I0
I2
I28
I4
tp3611
(F-0.10783469488552397
I9
tp3612
s(I0
I1
I0
I1
I2
I17
I4
tp3613
(F-0.03176419676448487
I35
tp3614
s(I0
I0
I1
I3
I1
I12
I3
tp3615
(F-0.11040905643995118
I4
tp3616
s(I0
I0
I0
I1
I1
I9
I4
tp3617
(F0.07996719694930023
I2450
tp3618
s(I0
I1
I0
I3
I1
I12
I3
tp3619
(F-0.023952358478181487
I3
tp3620
s(I0
I0
I1
I1
I2
I21
I2
tp3621
(F0.5189962092049064
I2
tp3622
s(I0
I0
I1
I1
I1
I5
I1
tp3623
(F0.7699760777512549
I121
tp3624
s(I0
I0
I1
I0
I1
I16
I4
tp3625
(F-0.1598631745067527
I22
tp3626
s(I0
I1
I0
I1
I2
I5
I4
tp3627
(F0.31602035728057765
I16
tp3628
s(I0
I0
I1
I0
I2
I32
I4
tp3629
(F-0.1509844303340501
I4
tp3630
s(I0
I1
I1
I1
I1
I14
I4
tp3631
(F0.049838607490161245
I557
tp3632
s(I0
I0
I0
I0
I2
I7
I4
tp3633
(F0.23346581213460657
I2997
tp3634
s(I0
I0
I1
I1
I2
I18
I2
tp3635
(F0.4445728653815903
I2
tp3636
s(I0
I0
I1
I1
I2
I14
I1
tp3637
(F0.739917137551728
I38
tp3638
s(I0
I0
I1
I0
I2
I16
I1
tp3639
(F0.7669284544086831
I49
tp3640
s(I0
I0
I1
I3
I2
I17
I3
tp3641
(F-0.00433406095337821
I5
tp3642
s(I0
I1
I1
I2
I1
I1
I4
tp3643
(F0.3099070506176793
I28
tp3644
s(I0
I0
I0
I3
I2
I8
I3
tp3645
(F0.4037551707413351
I1761
tp3646
s(I0
I0
I1
I2
I1
I1
I2
tp3647
(F0.4567763675329842
I135
tp3648
s(I0
I0
I0
I2
I2
I31
I4
tp3649
(F-0.14826906920334776
I179
tp3650
s(I0
I1
I0
I0
I2
I16
I4
tp3651
(F-0.08454522700409427
I48
tp3652
s(I0
I0
I0
I1
I2
I6
I3
tp3653
(F0.33951303152521495
I1969
tp3654
s(I0
I0
I1
I0
I2
I15
I2
tp3655
(F-0.026670525786222928
I18
tp3656
s(I0
I1
I0
I0
I1
I11
I2
tp3657
(F0.3938333319153528
I13
tp3658
s(I0
I0
I1
I2
I2
I33
I4
tp3659
(F-0.14187934679293512
I5
tp3660
s(I0
I2
I0
I0
I1
I5
I4
tp3661
(F0.07014933604791329
I3
tp3662
s(I0
I0
I0
I1
I2
I22
I4
tp3663
(F0.026863503463374912
I532
tp3664
s(I0
I1
I0
I2
I2
I16
I4
tp3665
(F0.03090816673582039
I56
tp3666
s(I0
I0
I0
I2
I1
I10
I3
tp3667
(F0.15448910053455303
I458
tp3668
s(I0
I1
I0
I1
I2
I22
I4
tp3669
(F-0.1259038543689125
I44
tp3670
s(I0
I0
I1
I1
I1
I12
I2
tp3671
(F0.2218502960905956
I6
tp3672
s(I0
I0
I0
I1
I1
I7
I3
tp3673
(F0.21832321779525105
I1157
tp3674
s(I0
I1
I0
I1
I2
I9
I4
tp3675
(F0.23301585170359204
I56
tp3676
s(I0
I0
I1
I0
I1
I14
I2
tp3677
(F-0.10067954769901874
I2
tp3678
s(I0
I1
I0
I2
I1
I7
I3
tp3679
(F0.3758929615791832
I23
tp3680
s(I0
I0
I1
I0
I0
I0
I2
tp3681
(F-0.18437674309574426
I742
tp3682
s(I0
I1
I1
I2
I1
I5
I4
tp3683
(F0.20048511499463992
I1892
tp3684
s(I0
I0
I0
I2
I2
I3
I3
tp3685
(F0.30633237929313734
I80
tp3686
s(I0
I0
I0
I0
I1
I14
I4
tp3687
(F-0.11412351892982267
I231
tp3688
s(I0
I1
I0
I1
I2
I11
I3
tp3689
(F0.4378415391137994
I67
tp3690
s(I0
I1
I1
I2
I2
I14
I1
tp3691
(F0.738220043047169
I2
tp3692
s(I0
I2
I0
I1
I1
I12
I4
tp3693
(F-0.07752410865366813
I7
tp3694
s(I0
I1
I0
I3
I2
I17
I3
tp3695
(F-0.048202438596820066
I6
tp3696
s(I0
I0
I1
I2
I2
I8
I2
tp3697
(F0.5281084657043378
I143
tp3698
s(I0
I0
I0
I3
I2
I2
I2
tp3699
(F-0.0195
I2
tp3700
s(I0
I0
I0
I1
I2
I9
I2
tp3701
(F0.5020023826133412
I3686
tp3702
s(I0
I0
I0
I3
I2
I10
I2
tp3703
(F0.5295953326486021
I2945
tp3704
s(I0
I1
I1
I1
I2
I9
I1
tp3705
(F0.7571127507407704
I4
tp3706
s(I0
I0
I1
I3
I1
I10
I4
tp3707
(F-0.07742502645070384
I64
tp3708
s(I0
I0
I1
I2
I1
I3
I1
tp3709
(F0.8046529328587608
I96
tp3710
s(I0
I0
I0
I2
I2
I12
I3
tp3711
(F0.4211025398883594
I2193
tp3712
s(I0
I0
I0
I1
I2
I4
I2
tp3713
(F0.5360052978423575
I260
tp3714
s(I0
I1
I1
I0
I2
I28
I4
tp3715
(F-0.04314492634698515
I5
tp3716
s(I0
I1
I0
I2
I2
I20
I2
tp3717
(F0.4552749879544231
I6
tp3718
s(I0
I1
I1
I1
I1
I2
I1
tp3719
(F-0.01
I1
tp3720
s(I0
I0
I0
I2
I1
I8
I2
tp3721
(F0.3443020012164159
I736
tp3722
s(I0
I1
I0
I1
I1
I16
I2
tp3723
(F0.1428051340626437
I2
tp3724
s(I0
I0
I0
I1
I1
I16
I2
tp3725
(F0.1423549149925178
I19
tp3726
s(I0
I0
I1
I0
I1
I7
I1
tp3727
(F0.5596948255060199
I57
tp3728
s(I1
I0
I1
I0
I1
I0
I0
tp3729
(F1.0
I1
tp3730
s(I0
I1
I0
I2
I1
I8
I2
tp3731
(F0.4536050809282585
I30
tp3732
s(I0
I0
I1
I1
I1
I14
I1
tp3733
(F0.3402495334829662
I6
tp3734
s(I0
I0
I1
I3
I2
I3
I1
tp3735
(F-0.0195
I2
tp3736
s(I0
I0
I0
I1
I1
I5
I2
tp3737
(F0.4608263207387222
I2549
tp3738
s(I0
I1
I0
I2
I1
I5
I2
tp3739
(F0.5821885056162239
I12
tp3740
s(I0
I0
I1
I3
I2
I19
I2
tp3741
(F-0.07247865684662826
I2
tp3742
s(I0
I0
I0
I0
I2
I14
I2
tp3743
(F0.5247563789631191
I1259
tp3744
s(I0
I0
I1
I1
I2
I9
I1
tp3745
(F0.8218317132525141
I225
tp3746
s(I0
I1
I0
I3
I2
I14
I2
tp3747
(F0.6684909623937269
I50
tp3748
s(I0
I1
I0
I1
I2
I9
I2
tp3749
(F0.5995108987309835
I107
tp3750
s(I0
I0
I1
I2
I2
I26
I4
tp3751
(F-0.16047988897381146
I41
tp3752
s(I0
I0
I0
I0
I2
I27
I2
tp3753
(F-0.06964989470381246
I21
tp3754
s(I0
I2
I0
I2
I2
I16
I4
tp3755
(F-0.05170040024095096
I6
tp3756
s(I0
I0
I1
I0
I2
I9
I3
tp3757
(F0.37026507269867903
I46
tp3758
s(I0
I1
I0
I3
I2
I19
I2
tp3759
(F-0.0195
I2
tp3760
s(I0
I0
I1
I2
I2
I10
I1
tp3761
(F0.7349253427942495
I312
tp3762
s(I0
I0
I0
I1
I2
I15
I3
tp3763
(F0.42852955522548986
I1572
tp3764
s(I0
I1
I0
I2
I2
I15
I3
tp3765
(F0.3478084258092201
I10
tp3766
s(I0
I1
I0
I1
I1
I11
I4
tp3767
(F0.06960528820022144
I851
tp3768
s(I0
I1
I1
I0
I0
I0
I2
tp3769
(F0.08734075482668825
I2
tp3770
s(I0
I0
I0
I2
I1
I3
I3
tp3771
(F0.3503292655967807
I3651
tp3772
s(I0
I0
I0
I3
I1
I10
I2
tp3773
(F0.30606971479339895
I258
tp3774
s(I0
I0
I0
I1
I2
I27
I2
tp3775
(F-0.07619127697420747
I22
tp3776
s(I0
I0
I1
I1
I2
I21
I4
tp3777
(F-0.10615155046318546
I59
tp3778
s(I1
I1
I0
I0
I2
I0
I0
tp3779
(F1.0
I1
tp3780
s(I0
I0
I0
I1
I1
I14
I3
tp3781
(F0.09680628261064955
I95
tp3782
s(I0
I0
I1
I0
I1
I5
I4
tp3783
(F0.007376127592690866
I156
tp3784
s(I0
I0
I1
I0
I2
I6
I3
tp3785
(F0.34483886439682504
I28
tp3786
s(I0
I1
I0
I2
I1
I14
I3
tp3787
(F-0.020249745642940603
I4
tp3788
s(I0
I0
I0
I0
I1
I7
I2
tp3789
(F0.38896513702587854
I839
tp3790
s(I0
I0
I1
I2
I2
I22
I4
tp3791
(F-0.1674141283723779
I37
tp3792
s(I0
I2
I0
I2
I2
I20
I4
tp3793
(F-0.05718645840192044
I4
tp3794
s(I0
I0
I1
I1
I2
I14
I3
tp3795
(F0.30664914363542134
I21
tp3796
s(I0
I0
I1
I3
I2
I17
I1
tp3797
(F0.6539975329851556
I5
tp3798
s(I0
I0
I1
I1
I2
I11
I4
tp3799
(F0.14973988899650323
I120
tp3800
s(I0
I1
I0
I3
I2
I8
I3
tp3801
(F0.44521512532095914
I12
tp3802
s(I0
I1
I0
I1
I1
I15
I4
tp3803
(F-0.030487144145997482
I77
tp3804
s(I0
I1
I1
I1
I2
I18
I1
tp3805
(F-0.020249745642940603
I4
tp3806
s(I0
I0
I1
I3
I1
I4
I4
tp3807
(F0.031798662867366684
I178
tp3808
s(I0
I1
I0
I1
I0
I0
I4
tp3809
(F-0.006264805710615506
I1796
tp3810
s(I0
I2
I0
I3
I2
I25
I4
tp3811
(F-0.03529281961303009
I5
tp3812
s(I0
I0
I0
I3
I2
I19
I2
tp3813
(F0.5200830243601521
I71
tp3814
s(I0
I1
I0
I2
I2
I13
I4
tp3815
(F-0.11353504130097007
I47
tp3816
s(I0
I1
I1
I1
I1
I5
I1
tp3817
(F0.7057095158784422
I5
tp3818
s(I0
I0
I0
I2
I1
I1
I4
tp3819
(F0.16912196438602473
I350
tp3820
s(I0
I0
I0
I3
I1
I12
I3
tp3821
(F0.1313589929969695
I102
tp3822
s(I0
I0
I1
I1
I1
I12
I4
tp3823
(F-0.15812580725954872
I46
tp3824
s(I0
I0
I0
I1
I1
I12
I4
tp3825
(F0.017554861794954798
I891
tp3826
s(I0
I0
I1
I1
I2
I7
I4
tp3827
(F0.18137937747631186
I78
tp3828
s(I0
I1
I1
I0
I2
I25
I4
tp3829
(F-0.028104999867941474
I3
tp3830
s(I0
I1
I0
I3
I1
I1
I4
tp3831
(F0.35609074124619006
I546
tp3832
s(I0
I0
I0
I0
I1
I9
I3
tp3833
(F0.18450486143908787
I454
tp3834
s(I0
I0
I1
I2
I2
I24
I3
tp3835
(F-0.04275507438105895
I4
tp3836
s(I0
I1
I1
I2
I1
I8
I2
tp3837
(F0.5037763583521373
I2
tp3838
s(I0
I0
I0
I0
I2
I2
I4
tp3839
(F0.26118791666541125
I13
tp3840
s(I0
I0
I0
I2
I2
I24
I2
tp3841
(F0.10406279952373597
I27
tp3842
s(I0
I1
I0
I1
I1
I13
I1
tp3843
(F0.5543339982333598
I12
tp3844
s(I0
I1
I1
I1
I2
I12
I4
tp3845
(F-0.08550032229518623
I10
tp3846
s(I0
I1
I0
I0
I2
I23
I2
tp3847
(F0.3044471559427325
I2
tp3848
s(I0
I0
I0
I3
I2
I5
I4
tp3849
(F0.24865721435013247
I320
tp3850
s(I0
I1
I1
I1
I1
I2
I3
tp3851
(F0.3989169898292218
I18
tp3852
s(I0
I0
I0
I3
I2
I21
I3
tp3853
(F0.08916326918237945
I45
tp3854
s(I0
I1
I1
I1
I1
I7
I4
tp3855
(F0.1474239284079549
I2886
tp3856
s(I0
I1
I0
I0
I1
I13
I2
tp3857
(F0.36326190260969105
I5
tp3858
s(I0
I1
I1
I0
I1
I14
I4
tp3859
(F0.0443420913096694
I597
tp3860
s(I0
I0
I0
I3
I1
I5
I3
tp3861
(F0.27658918878694877
I868
tp3862
s(I0
I0
I1
I0
I1
I7
I3
tp3863
(F0.16216793173893837
I30
tp3864
s(I0
I1
I0
I3
I1
I5
I4
tp3865
(F0.20569358453353956
I5072
tp3866
s(I0
I0
I1
I3
I2
I3
I3
tp3867
(F-0.0195
I2
tp3868
s(I0
I0
I1
I3
I2
I19
I4
tp3869
(F-0.019293002844135296
I40
tp3870
s(I0
I0
I0
I0
I2
I14
I4
tp3871
(F0.12719175794443913
I2755
tp3872
s(I0
I0
I1
I1
I2
I9
I3
tp3873
(F0.39750053808594427
I50
tp3874
s(I0
I2
I0
I0
I2
I10
I2
tp3875
(F0.5922613918921658
I2
tp3876
s(I0
I0
I0
I0
I2
I11
I3
tp3877
(F0.4305011786770298
I2489
tp3878
s(I0
I0
I0
I0
I1
I11
I4
tp3879
(F0.0010410274922908371
I707
tp3880
s(I0
I1
I1
I1
I2
I16
I4
tp3881
(F-0.06974771750709306
I9
tp3882
s(I0
I0
I1
I0
I1
I2
I2
tp3883
(F0.5605362197612662
I137
tp3884
s(I0
I0
I1
I3
I1
I13
I2
tp3885
(F-0.027707663819234132
I9
tp3886
s(I0
I0
I0
I1
I2
I15
I1
tp3887
(F0.7804191845446901
I2135
tp3888
s(I0
I0
I1
I0
I2
I4
I2
tp3889
(F-0.0195
I2
tp3890
s(I0
I1
I0
I2
I2
I15
I1
tp3891
(F0.8405066669362914
I38
tp3892
s(I0
I0
I0
I0
I2
I20
I4
tp3893
(F0.0479327425352048
I679
tp3894
s(I0
I1
I0
I1
I1
I11
I2
tp3895
(F0.41469487652879766
I15
tp3896
s(I0
I1
I0
I0
I1
I2
I1
tp3897
(F0.8787339944245713
I36
tp3898
s(I0
I1
I0
I2
I2
I31
I4
tp3899
(F-0.05430295460299474
I12
tp3900
s(I0
I0
I0
I2
I1
I3
I1
tp3901
(F0.8406716286931541
I3785
tp3902
s(I0
I1
I1
I0
I1
I2
I4
tp3903
(F0.24500115522453686
I269
tp3904
s(I0
I2
I0
I1
I1
I7
I4
tp3905
(F-0.05116115957261172
I2
tp3906
s(I0
I0
I0
I3
I1
I7
I3
tp3907
(F0.21297596291220108
I504
tp3908
s(I1
I0
I0
I1
I1
I0
I0
tp3909
(F1.0
I1
tp3910
s(I0
I0
I1
I3
I2
I12
I2
tp3911
(F0.5164470156494877
I33
tp3912
s(I0
I0
I0
I1
I1
I14
I1
tp3913
(F0.35189439912358966
I85
tp3914
s(I0
I0
I1
I0
I1
I5
I2
tp3915
(F0.43266744565899296
I72
tp3916
s(I0
I1
I0
I2
I1
I14
I1
tp3917
(F0.5030046014533713
I8
tp3918
s(I0
I1
I0
I3
I1
I7
I1
tp3919
(F0.6883856758332595
I33
tp3920
s(I0
I0
I0
I0
I1
I7
I4
tp3921
(F0.05660235101082951
I2301
tp3922
s(I0
I1
I0
I1
I2
I2
I1
tp3923
(F0.94
I2
tp3924
s(I0
I0
I0
I0
I1
I2
I3
tp3925
(F0.35151601458517034
I1673
tp3926
s(I0
I0
I1
I2
I2
I17
I3
tp3927
(F-0.1179457065100672
I6
tp3928
s(I0
I1
I0
I1
I2
I18
I4
tp3929
(F-0.06011434581192326
I53
tp3930
s(I0
I0
I1
I1
I2
I11
I2
tp3931
(F0.5227660500321465
I92
tp3932
s(I0
I1
I0
I3
I2
I8
I1
tp3933
(F0.7337855916432436
I22
tp3934
s(I0
I0
I0
I0
I2
I16
I4
tp3935
(F0.10418088646832126
I1809
tp3936
s(I0
I0
I0
I3
I2
I24
I2
tp3937
(F-0.06864651574326264
I21
tp3938
s(I0
I1
I1
I3
I1
I9
I4
tp3939
(F0.11849999671709122
I2585
tp3940
s(I0
I1
I0
I2
I2
I6
I2
tp3941
(F0.5857246886145315
I24
tp3942
s(I0
I2
I0
I2
I1
I12
I4
tp3943
(F-0.05946644222628898
I4
tp3944
s(I0
I0
I0
I3
I2
I3
I1
tp3945
(F0.7475052258952348
I69
tp3946
s(I0
I1
I0
I1
I0
I0
I2
tp3947
(F0.2514114898226443
I68
tp3948
s(I0
I1
I0
I0
I2
I11
I1
tp3949
(F0.778620620142418
I209
tp3950
s(I0
I1
I0
I1
I1
I2
I2
tp3951
(F0.5911344078134732
I58
tp3952
s(I0
I1
I0
I0
I2
I27
I4
tp3953
(F-0.14509783372441004
I11
tp3954
s(I0
I0
I0
I1
I2
I29
I1
tp3955
(F-0.0195
I2
tp3956
s(I0
I0
I0
I2
I2
I22
I2
tp3957
(F0.19377191783123915
I39
tp3958
s(I0
I0
I0
I3
I1
I12
I1
tp3959
(F0.41764245072738004
I116
tp3960
s(I0
I1
I0
I0
I2
I30
I3
tp3961
(F-0.0195
I2
tp3962
s(I0
I1
I1
I0
I1
I16
I4
tp3963
(F0.025800147169944877
I132
tp3964
s(I0
I0
I0
I1
I2
I30
I3
tp3965
(F-0.07170784853579501
I6
tp3966
s(I0
I0
I0
I0
I0
I0
I1
tp3967
(F-0.14564696197949337
I8602
tp3968
s(I0
I0
I1
I3
I2
I10
I3
tp3969
(F0.3491462446158471
I21
tp3970
s(I0
I0
I1
I1
I1
I7
I2
tp3971
(F0.3570411040861494
I38
tp3972
s(I0
I1
I1
I3
I1
I5
I4
tp3973
(F0.1989376725338574
I1527
tp3974
s(I0
I1
I0
I3
I1
I1
I2
tp3975
(F0.5160287145584541
I285
tp3976
s(I0
I0
I0
I0
I1
I9
I1
tp3977
(F0.5077850790232832
I478
tp3978
s(I0
I1
I1
I2
I1
I8
I4
tp3979
(F0.13078798279387774
I2802
tp3980
s(I0
I0
I0
I2
I2
I8
I1
tp3981
(F0.696982806200662
I1059
tp3982
s(I0
I2
I0
I0
I2
I17
I1
tp3983
(F-0.028525000000000002
I2
tp3984
s(I0
I0
I1
I2
I2
I19
I4
tp3985
(F0.05383683074540348
I47
tp3986
s(I0
I1
I0
I1
I2
I16
I1
tp3987
(F0.7528355142561983
I57
tp3988
s(I0
I0
I1
I2
I2
I4
I2
tp3989
(F-0.0195
I2
tp3990
s(I0
I0
I0
I2
I2
I24
I4
tp3991
(F-0.025962405550190262
I354
tp3992
s(I0
I0
I1
I3
I1
I3
I3
tp3993
(F0.27464265226292384
I77
tp3994
s(I0
I0
I0
I0
I2
I18
I1
tp3995
(F0.6861014609131082
I187
tp3996
s(I0
I1
I0
I1
I1
I13
I3
tp3997
(F-0.07762211797632226
I8
tp3998
s(I0
I0
I0
I2
I2
I29
I3
tp3999
(F-0.09079026389126589
I23
tp4000
s(I0
I1
I0
I1
I2
I29
I3
tp4001
(F-0.02638745650089662
I10
tp4002
s(I0
I0
I1
I2
I1
I12
I4
tp4003
(F-0.14563427555105335
I40
tp4004
s(I0
I1
I0
I0
I1
I5
I1
tp4005
(F0.3743121551315965
I2
tp4006
s(I0
I0
I0
I3
I1
I5
I2
tp4007
(F0.4655971434182375
I975
tp4008
s(I0
I1
I0
I0
I2
I21
I2
tp4009
(F0.3751078042673983
I10
tp4010
s(I0
I0
I0
I3
I2
I21
I1
tp4011
(F0.6767089952275587
I49
tp4012
s(I0
I0
I0
I1
I2
I19
I2
tp4013
(F0.5073640692936837
I168
tp4014
s(I0
I1
I0
I2
I2
I27
I2
tp4015
(F-0.06002281859700083
I3
tp4016
s(I0
I0
I0
I0
I1
I16
I1
tp4017
(F0.329237007585901
I10
tp4018
s(I0
I1
I0
I3
I1
I8
I1
tp4019
(F0.6398151366120328
I16
tp4020
s(I0
I0
I0
I0
I2
I11
I1
tp4021
(F0.7447313419821359
I4960
tp4022
s(I0
I1
I0
I3
I2
I3
I1
tp4023
(F0.7983755917395393
I5
tp4024
s(I0
I0
I1
I2
I1
I8
I4
tp4025
(F-0.056673718383210475
I114
tp4026
s(I0
I0
I1
I0
I2
I20
I3
tp4027
(F-0.11292892447914009
I24
tp4028
s(I0
I0
I1
I3
I1
I13
I4
tp4029
(F-0.1722125792821734
I45
tp4030
s(I0
I0
I0
I3
I2
I12
I1
tp4031
(F0.7940505857822375
I1987
tp4032
s(I0
I1
I1
I1
I2
I11
I2
tp4033
(F0.576266091703472
I2
tp4034
s(I0
I0
I0
I0
I2
I20
I2
tp4035
(F0.4865232355352012
I74
tp4036
s(I0
I0
I0
I1
I2
I10
I4
tp4037
(F0.19421158017450763
I6610
tp4038
s(I0
I0
I0
I3
I2
I28
I2
tp4039
(F-0.07350980881367379
I18
tp4040
s(I0
I0
I0
I1
I2
I26
I1
tp4041
(F0.4694505099651022
I13
tp4042
s(I0
I1
I0
I0
I1
I7
I4
tp4043
(F0.13615726139948642
I3601
tp4044
s(I0
I1
I0
I1
I2
I17
I3
tp4045
(F0.2935519048841828
I17
tp4046
s(I0
I0
I0
I3
I1
I7
I1
tp4047
(F0.5849034989906992
I829
tp4048
s(I0
I0
I0
I2
I1
I14
I1
tp4049
(F0.34269276872278137
I42
tp4050
s(I0
I0
I0
I2
I2
I17
I4
tp4051
(F0.08988486817664233
I2094
tp4052
s(I0
I1
I0
I3
I1
I7
I3
tp4053
(F0.35125700730257137
I8
tp4054
s(I0
I0
I1
I1
I2
I30
I4
tp4055
(F-0.14865124443263297
I27
tp4056
s(I0
I1
I0
I2
I1
I11
I4
tp4057
(F0.07932979574535183
I860
tp4058
s(I0
I0
I0
I0
I1
I18
I4
tp4059
(F-0.16712924087258071
I39
tp4060
s(I0
I0
I0
I1
I1
I3
I1
tp4061
(F0.8395841281224449
I2206
tp4062
s(I0
I0
I1
I0
I1
I10
I4
tp4063
(F-0.1137313666263521
I50
tp4064
s(I0
I1
I1
I1
I1
I6
I1
tp4065
(F0.6658682166915988
I3
tp4066
s(I0
I0
I1
I2
I2
I17
I1
tp4067
(F0.7241033108385821
I17
tp4068
s(I0
I2
I0
I2
I2
I9
I3
tp4069
(F0.3683624602862278
I2
tp4070
s(I0
I0
I0
I2
I2
I15
I1
tp4071
(F0.728513030177519
I698
tp4072
s(I0
I1
I0
I1
I2
I15
I1
tp4073
(F0.7923954400692863
I108
tp4074
s(I0
I2
I0
I2
I2
I25
I4
tp4075
(F-0.05011591933738238
I6
tp4076
s(I0
I0
I0
I2
I2
I31
I2
tp4077
(F-0.06282717845622646
I14
tp4078
s(I0
I1
I0
I3
I2
I13
I4
tp4079
(F-0.1287155733036339
I26
tp4080
s(I0
I0
I0
I0
I2
I29
I1
tp4081
(F0.47665787445627206
I13
tp4082
s(I0
I0
I1
I2
I1
I10
I1
tp4083
(F0.4589175642495503
I32
tp4084
s(I0
I1
I0
I0
I1
I1
I2
tp4085
(F0.5106848553872634
I420
tp4086
s(I0
I1
I0
I0
I1
I11
I4
tp4087
(F0.06972387243648573
I623
tp4088
s(I0
I1
I0
I0
I2
I11
I3
tp4089
(F0.44343545747074287
I54
tp4090
s(I0
I1
I0
I1
I1
I2
I4
tp4091
(F0.24277728657535913
I7191
tp4092
s(I0
I1
I0
I0
I2
I14
I4
tp4093
(F-0.1298160259646551
I38
tp4094
s(I0
I0
I1
I2
I1
I7
I3
tp4095
(F0.21410155679823145
I47
tp4096
s(I0
I1
I1
I3
I2
I11
I4
tp4097
(F-0.0795585575405483
I11
tp4098
s(I0
I0
I0
I1
I2
I24
I4
tp4099
(F-0.024065438064593797
I388
tp4100
s(I0
I0
I0
I3
I1
I9
I4
tp4101
(F0.012782422709681015
I1143
tp4102
s(I0
I0
I1
I0
I1
I14
I4
tp4103
(F-0.16340866489511505
I50
tp4104
s(I0
I0
I0
I0
I0
I0
I3
tp4105
(F-0.19829847077448107
I8363
tp4106
s(I0
I0
I1
I3
I2
I10
I1
tp4107
(F0.7859743088543913
I161
tp4108
s(I0
I0
I1
I1
I1
I7
I4
tp4109
(F-0.027598905155362924
I163
tp4110
s(I0
I2
I0
I2
I2
I13
I4
tp4111
(F-0.05678322506406848
I8
tp4112
s(I0
I0
I1
I1
I2
I16
I2
tp4113
(F0.5314766956268572
I10
tp4114
s(I0
I0
I1
I1
I1
I2
I3
tp4115
(F0.2832217952328746
I167
tp4116
s(I0
I0
I0
I2
I2
I8
I3
tp4117
(F0.40002015594482593
I2444
tp4118
s(I0
I1
I0
I3
I2
I12
I2
tp4119
(F0.6262559699135196
I83
tp4120
s(I0
I1
I1
I0
I2
I22
I4
tp4121
(F-0.05150724693596473
I5
tp4122
s(I0
I1
I0
I1
I2
I16
I3
tp4123
(F0.36804494296218804
I20
tp4124
s(I0
I2
I0
I2
I2
I11
I2
tp4125
(F-0.028525000000000002
I2
tp4126
s(I0
I0
I0
I2
I2
I13
I4
tp4127
(F0.14734783165305096
I4039
tp4128
s(I0
I0
I1
I3
I1
I10
I2
tp4129
(F-0.00376709152493117
I11
tp4130
s(I0
I1
I1
I3
I2
I15
I4
tp4131
(F-0.13676882503530763
I3
tp4132
s(I0
I1
I0
I3
I2
I26
I3
tp4133
(F-0.046326954333149456
I8
tp4134
s(I0
I0
I0
I0
I2
I28
I1
tp4135
(F0.5543035333415063
I27
tp4136
s(I0
I0
I0
I1
I2
I4
I4
tp4137
(F0.2625501559219744
I535
tp4138
s(I0
I0
I1
I2
I1
I12
I2
tp4139
(F0.2508196695939479
I16
tp4140
s(I0
I2
I1
I0
I1
I13
I4
tp4141
(F-0.04415335242787339
I4
tp4142
s(I0
I1
I0
I0
I1
I5
I3
tp4143
(F0.4073969829192374
I19
tp4144
s(I0
I1
I0
I3
I2
I31
I4
tp4145
(F-0.10981558213438772
I9
tp4146
s(I0
I0
I1
I2
I2
I14
I3
tp4147
(F0.40872465673696
I27
tp4148
s(I0
I0
I0
I3
I1
I5
I4
tp4149
(F0.09255842653193094
I3055
tp4150
s(I0
I1
I0
I0
I1
I2
I2
tp4151
(F0.6229569765655472
I81
tp4152
s(I0
I1
I1
I1
I2
I7
I4
tp4153
(F-0.10156734514729454
I5
tp4154
s(I0
I1
I0
I1
I1
I16
I4
tp4155
(F-0.05807379118551648
I52
tp4156
s(I0
I0
I0
I3
I2
I16
I4
tp4157
(F0.11289061583132827
I1406
tp4158
s(I0
I1
I1
I1
I1
I8
I4
tp4159
(F0.12797570842814585
I2827
tp4160
s(I0
I0
I1
I1
I0
I0
I1
tp4161
(F-0.10963951329575858
I598
tp4162
s(I0
I0
I0
I2
I2
I33
I2
tp4163
(F-0.051747516189850816
I8
tp4164
s(I0
I0
I0
I0
I1
I16
I3
tp4165
(F0.04868466605731084
I19
tp4166
s(I0
I0
I1
I1
I1
I9
I2
tp4167
(F0.2831828062841457
I19
tp4168
s(I0
I0
I1
I0
I1
I12
I1
tp4169
(F0.41106664478915406
I28
tp4170
s(I0
I1
I0
I3
I1
I8
I3
tp4171
(F0.3992232802746394
I11
tp4172
s(I0
I1
I0
I2
I1
I5
I4
tp4173
(F0.20261962074712586
I6831
tp4174
s(I0
I1
I1
I0
I2
I18
I4
tp4175
(F-0.07010495773523717
I7
tp4176
s(I0
I0
I1
I0
I1
I17
I3
tp4177
(F-0.0554723969182342
I7
tp4178
s(I0
I0
I0
I0
I2
I9
I2
tp4179
(F0.5064002774167526
I4700
tp4180
s(I0
I3
I0
I3
I2
I16
I4
tp4181
(F-0.01
I1
tp4182
s(I0
I0
I1
I0
I2
I20
I1
tp4183
(F0.7129519352395268
I10
tp4184
s(I0
I1
I0
I3
I2
I19
I4
tp4185
(F-0.1279386154937495
I36
tp4186
s(I0
I0
I0
I3
I2
I12
I3
tp4187
(F0.437612157334462
I1624
tp4188
s(I0
I0
I1
I2
I2
I5
I2
tp4189
(F0.49880762584675314
I54
tp4190
s(I0
I0
I1
I3
I1
I8
I1
tp4191
(F0.5179684908416555
I35
tp4192
s(I0
I0
I1
I2
I1
I5
I2
tp4193
(F0.44891101207547085
I34
tp4194
s(I0
I1
I1
I3
I2
I13
I1
tp4195
(F0.7362981220911481
I4
tp4196
s(I0
I1
I0
I1
I2
I35
I4
tp4197
(F-0.035538559466833326
I5
tp4198
s(I0
I0
I0
I1
I2
I26
I3
tp4199
(F-0.09704875538566779
I34
tp4200
s(I0
I1
I0
I0
I1
I7
I2
tp4201
(F0.44722249757972715
I34
tp4202
s(I0
I1
I0
I2
I2
I18
I3
tp4203
(F-0.0978347000714549
I9
tp4204
s(I0
I2
I0
I1
I1
I4
I4
tp4205
(F-0.01
I1
tp4206
s(I0
I0
I0
I0
I2
I33
I4
tp4207
(F-0.11011521531761072
I57
tp4208
s(I0
I1
I1
I1
I1
I12
I4
tp4209
(F0.06618362588272293
I1323
tp4210
s(I0
I0
I0
I2
I1
I14
I3
tp4211
(F0.10331673227795268
I103
tp4212
s(I0
I1
I1
I0
I1
I9
I4
tp4213
(F0.11141498462041914
I2707
tp4214
s(I0
I0
I0
I3
I2
I34
I4
tp4215
(F-0.12187794028334263
I24
tp4216
s(I0
I0
I1
I1
I1
I16
I1
tp4217
(F0.3131993647230975
I3
tp4218
s(I0
I0
I0
I0
I1
I18
I2
tp4219
(F0.16208339755044554
I2
tp4220
s(I0
I2
I0
I2
I1
I9
I4
tp4221
(F-0.06395588317477452
I7
tp4222
s(I0
I0
I1
I0
I1
I10
I2
tp4223
(F0.22969886391100958
I11
tp4224
s(I0
I1
I0
I3
I1
I10
I2
tp4225
(F0.45736848598971636
I25
tp4226
s(I0
I0
I0
I2
I2
I15
I3
tp4227
(F0.4075711745007588
I949
tp4228
s(I0
I0
I1
I3
I2
I22
I2
tp4229
(F-0.0195
I3
tp4230
s(I0
I1
I0
I1
I2
I15
I3
tp4231
(F0.4024054892247512
I17
tp4232
s(I0
I1
I1
I2
I2
I10
I1
tp4233
(F0.7282405995002172
I3
tp4234
s(I0
I0
I0
I0
I2
I32
I1
tp4235
(F-0.04314492634698515
I5
tp4236
s(I0
I1
I0
I1
I2
I31
I4
tp4237
(F-0.06697951440351407
I10
tp4238
s(I0
I0
I0
I0
I2
I29
I3
tp4239
(F-0.09053887222607178
I18
tp4240
s(I0
I0
I1
I2
I1
I10
I3
tp4241
(F0.0427241859066797
I15
tp4242
s(I0
I1
I1
I3
I1
I10
I4
tp4243
(F0.09583321210700374
I2346
tp4244
s(I0
I0
I1
I0
I2
I26
I4
tp4245
(F-0.16588762775060623
I57
tp4246
s(I0
I1
I0
I3
I2
I29
I3
tp4247
(F-0.03129526656747823
I6
tp4248
s(I0
I0
I1
I2
I2
I12
I2
tp4249
(F0.5524965053242653
I117
tp4250
s(I0
I0
I0
I1
I2
I13
I2
tp4251
(F0.5296467490328718
I2958
tp4252
s(I0
I0
I1
I0
I2
I10
I1
tp4253
(F0.7084561636600051
I55
tp4254
s(I0
I1
I0
I0
I1
I12
I3
tp4255
(F-0.08678058920084149
I3
tp4256
s(I0
I1
I0
I2
I2
I13
I2
tp4257
(F0.5973241388288333
I66
tp4258
s(I0
I1
I0
I0
I2
I14
I2
tp4259
(F0.5832934775730959
I35
tp4260
s(I0
I0
I1
I2
I1
I7
I1
tp4261
(F0.600411134620083
I62
tp4262
s(I0
I2
I0
I1
I2
I29
I3
tp4263
(F-0.01
I1
tp4264
s(I0
I0
I0
I2
I1
I1
I2
tp4265
(F0.4600970417506089
I4464
tp4266
s(I0
I2
I0
I2
I1
I3
I4
tp4267
(F0.1944869697228666
I3
tp4268
s(I0
I0
I0
I1
I2
I24
I2
tp4269
(F0.1522329052353228
I20
tp4270
s(I0
I2
I0
I3
I2
I19
I4
tp4271
(F-0.04937092152197414
I9
tp4272
s(I0
I1
I0
I2
I2
I16
I2
tp4273
(F0.5433492014187008
I18
tp4274
s(I0
I0
I1
I3
I1
I2
I4
tp4275
(F0.03215673012680849
I66
tp4276
s(I0
I0
I0
I2
I1
I12
I2
tp4277
(F0.25074034273426415
I209
tp4278
s(I0
I2
I0
I2
I1
I13
I4
tp4279
(F-0.14034662683483648
I4
tp4280
s(I0
I2
I1
I2
I1
I15
I4
tp4281
(F-0.028525000000000002
I2
tp4282
s(I0
I0
I0
I1
I1
I12
I2
tp4283
(F0.24168973295819263
I304
tp4284
s(I0
I0
I1
I1
I1
I18
I4
tp4285
(F-0.15418022197997944
I5
tp4286
s(I0
I0
I1
I0
I1
I3
I1
tp4287
(F0.7832692510114313
I109
tp4288
s(I0
I1
I0
I2
I1
I12
I2
tp4289
(F0.3834815064411012
I5
tp4290
s(I0
I0
I1
I3
I2
I15
I4
tp4291
(F0.04564439495260383
I85
tp4292
s(I0
I0
I1
I1
I1
I2
I1
tp4293
(F0.8594389719454606
I151
tp4294
s(I0
I0
I0
I1
I1
I1
I2
tp4295
(F0.47696068253971463
I5806
tp4296
s(I0
I1
I1
I3
I1
I2
I1
tp4297
(F0.8461226423085396
I2
tp4298
s(I0
I0
I1
I0
I2
I22
I4
tp4299
(F-0.16816210442728152
I42
tp4300
s(I0
I5
I0
I3
I2
I17
I4
tp4301
(F-0.01
I1
tp4302
s(I0
I0
I0
I0
I2
I2
I2
tp4303
(F-0.06619763295486454
I5
tp4304
s(I0
I0
I1
I1
I2
I13
I1
tp4305
(F0.7788453989167237
I195
tp4306
s(I0
I0
I0
I2
I2
I13
I2
tp4307
(F0.5245471849939658
I2002
tp4308
s(I0
I1
I0
I3
I2
I10
I2
tp4309
(F0.6372585961915975
I59
tp4310
s(I0
I1
I0
I1
I2
I13
I2
tp4311
(F0.6159061102464851
I68
tp4312
s(I0
I0
I0
I0
I2
I31
I2
tp4313
(F-0.054905164000078235
I4
tp4314
s(I0
I2
I0
I3
I2
I23
I4
tp4315
(F-0.04415335242787339
I2
tp4316
s(I0
I0
I1
I0
I2
I13
I3
tp4317
(F0.37760538687130113
I44
tp4318
s(I0
I1
I1
I3
I2
I18
I1
tp4319
(F0.6865824061036956
I2
tp4320
s(I0
I0
I1
I2
I2
I14
I1
tp4321
(F0.7659720606331307
I204
tp4322
s(I1
I1
I0
I1
I1
I0
I0
tp4323
(F1.0
I1
tp4324
s(I0
I0
I0
I1
I2
I3
I3
tp4325
(F0.3121346171835346
I224
tp4326
s(I0
I0
I1
I0
I2
I8
I4
tp4327
(F0.20858454680797828
I64
tp4328
s(I0
I1
I0
I0
I1
I14
I4
tp4329
(F-0.012045507138185132
I87
tp4330
s(I0
I1
I0
I2
I2
I11
I3
tp4331
(F0.49175768588635754
I26
tp4332
s(I0
I2
I0
I1
I2
I31
I4
tp4333
(F-0.0195
I2
tp4334
s(I0
I0
I0
I2
I1
I7
I3
tp4335
(F0.22258808391523585
I1499
tp4336
s(I0
I0
I0
I3
I1
I14
I2
tp4337
(F0.22464216828557154
I55
tp4338
s(I0
I1
I1
I1
I1
I8
I2
tp4339
(F0.34674024315543794
I5
tp4340
s(I0
I2
I0
I0
I2
I11
I4
tp4341
(F-0.01
I1
tp4342
s(I0
I0
I1
I1
I0
I0
I3
tp4343
(F-0.19789740404907322
I1008
tp4344
s(I0
I0
I1
I3
I1
I1
I4
tp4345
(F0.06855792270119347
I12
tp4346
s(I1
I1
I0
I3
I1
I0
I0
tp4347
(F1.0
I1
tp4348
s(I0
I0
I1
I0
I1
I12
I3
tp4349
(F-0.12715405296353594
I6
tp4350
s(I0
I0
I0
I1
I1
I10
I3
tp4351
(F0.15217029155268005
I448
tp4352
s(I0
I1
I0
I2
I1
I2
I3
tp4353
(F0.44392181210091036
I187
tp4354
s(I0
I0
I0
I2
I2
I6
I3
tp4355
(F0.36065853874461384
I1060
tp4356
s(I0
I0
I0
I0
I1
I11
I2
tp4357
(F0.27693313353780946
I310
tp4358
s(I0
I0
I1
I3
I2
I29
I4
tp4359
(F-0.15542247003230802
I40
tp4360
s(I0
I1
I0
I1
I2
I6
I3
tp4361
(F0.42910771738316167
I79
tp4362
s(I0
I1
I1
I2
I2
I13
I1
tp4363
(F0.7427854211344798
I4
tp4364
s(I0
I0
I0
I0
I2
I4
I3
tp4365
(F0.32516531248829045
I649
tp4366
s(I0
I0
I1
I0
I2
I4
I4
tp4367
(F-0.01
I1
tp4368
s(I0
I1
I0
I0
I1
I18
I4
tp4369
(F-0.1193341264592418
I7
tp4370
s(I0
I1
I0
I3
I2
I20
I3
tp4371
(F-0.04638298215681782
I10
tp4372
s(I0
I1
I1
I1
I2
I30
I4
tp4373
(F-0.05552620239813422
I3
tp4374
s(I0
I0
I1
I2
I1
I5
I4
tp4375
(F0.07009499829417032
I142
tp4376
s(I0
I2
I0
I1
I2
I19
I4
tp4377
(F-0.07842858228089092
I14
tp4378
s(I0
I1
I0
I0
I2
I7
I4
tp4379
(F0.23035363191822197
I19
tp4380
s(I0
I0
I0
I3
I2
I23
I2
tp4381
(F-0.07858316674091188
I35
tp4382
s(I0
I2
I0
I1
I1
I16
I4
tp4383
(F-0.04293954228406983
I6
tp4384
s(I0
I0
I0
I3
I1
I16
I3
tp4385
(F-0.0351952262880257
I40
tp4386
s(I0
I1
I1
I0
I1
I12
I1
tp4387
(F0.5040318277116252
I2
tp4388
s(I0
I0
I0
I2
I2
I4
I4
tp4389
(F0.24369022967152998
I162
tp4390
s(I0
I0
I0
I0
I1
I13
I3
tp4391
(F0.09395804059624085
I114
tp4392
s(I0
I1
I1
I0
I2
I13
I1
tp4393
(F0.7824257618246921
I3
tp4394
s(I0
I1
I1
I2
I2
I15
I4
tp4395
(F-0.028104999867941474
I3
tp4396
s(I0
I1
I1
I3
I0
I0
I1
tp4397
(F-0.036199936721382664
I12
tp4398
s(I0
I0
I1
I2
I2
I12
I4
tp4399
(F0.16021972751269034
I232
tp4400
s(I0
I0
I0
I1
I2
I13
I4
tp4401
(F0.14583401544841185
I5012
tp4402
s(I0
I0
I1
I0
I2
I10
I3
tp4403
(F0.36720464582059165
I34
tp4404
s(I0
I1
I0
I0
I1
I12
I1
tp4405
(F0.5600990440637179
I10
tp4406
s(I0
I2
I0
I1
I2
I13
I2
tp4407
(F0.5144121441173466
I5
tp4408
s(I0
I0
I1
I1
I2
I28
I4
tp4409
(F-0.15462399564016682
I28
tp4410
s(I0
I1
I0
I1
I1
I9
I1
tp4411
(F0.6075303721535985
I36
tp4412
s(I0
I1
I0
I3
I2
I5
I1
tp4413
(F0.8300427972635215
I6
tp4414
s(I0
I1
I0
I0
I2
I17
I4
tp4415
(F-0.1408639629572706
I48
tp4416
s(I0
I0
I0
I1
I2
I23
I4
tp4417
(F-0.006253420797583622
I487
tp4418
s(I0
I0
I0
I3
I0
I0
I3
tp4419
(F-0.19869451568328522
I10581
tp4420
s(I0
I0
I0
I3
I1
I18
I4
tp4421
(F-0.16505136883336027
I39
tp4422
s(I0
I0
I1
I0
I1
I3
I3
tp4423
(F0.2881375557226554
I67
tp4424
s(I0
I1
I0
I0
I2
I6
I4
tp4425
(F0.2807569797008408
I16
tp4426
s(I0
I1
I0
I2
I1
I12
I4
tp4427
(F0.06020968897549829
I508
tp4428
s(I0
I0
I0
I1
I1
I17
I3
tp4429
(F-0.0003271330607820533
I21
tp4430
s(I0
I1
I0
I2
I1
I9
I3
tp4431
(F0.35356402081796234
I14
tp4432
s(I0
I1
I1
I2
I2
I19
I4
tp4433
(F-0.046116459612959584
I6
tp4434
s(I0
I0
I1
I2
I2
I19
I2
tp4435
(F0.479149688522605
I13
tp4436
s(I0
I1
I1
I2
I1
I3
I3
tp4437
(F0.4300701153202716
I13
tp4438
s(I0
I0
I1
I1
I2
I13
I3
tp4439
(F0.3799854427080385
I36
tp4440
s(I0
I1
I0
I3
I2
I10
I4
tp4441
(F0.185919194904122
I39
tp4442
s(I0
I1
I1
I2
I1
I6
I4
tp4443
(F0.17064141059613538
I2277
tp4444
s(I0
I0
I0
I0
I2
I15
I3
tp4445
(F0.42269657690269336
I1019
tp4446
s(I0
I1
I0
I3
I2
I15
I3
tp4447
(F-0.06576092437643011
I18
tp4448
s(I0
I1
I0
I0
I2
I5
I1
tp4449
(F0.7655633192000113
I22
tp4450
s(I0
I0
I0
I2
I2
I18
I4
tp4451
(F0.08216061454065518
I1551
tp4452
s(I0
I1
I0
I1
I1
I15
I2
tp4453
(F0.18689594934217452
I8
tp4454
s(I0
I0
I1
I3
I1
I1
I2
tp4455
(F0.3538053261570314
I75
tp4456
s(I0
I2
I0
I1
I1
I15
I4
tp4457
(F-0.11503005086525561
I11
tp4458
s(I0
I2
I0
I3
I2
I10
I1
tp4459
(F0.6877799257080089
I3
tp4460
s(I0
I0
I1
I0
I2
I8
I2
tp4461
(F0.35770256143286494
I11
tp4462
s(I0
I1
I0
I2
I2
I11
I1
tp4463
(F0.7683502469763904
I164
tp4464
s(I0
I0
I0
I1
I2
I19
I4
tp4465
(F0.07688500652628114
I1365
tp4466
s(I0
I1
I0
I1
I1
I7
I2
tp4467
(F0.4680207764066431
I54
tp4468
s(I0
I0
I0
I2
I1
I7
I1
tp4469
(F0.5982960031728813
I1419
tp4470
s(I0
I0
I0
I3
I1
I14
I4
tp4471
(F-0.11797940611275608
I232
tp4472
s(I0
I0
I0
I3
I1
I11
I3
tp4473
(F0.15464773603758936
I144
tp4474
s(I0
I1
I1
I1
I1
I17
I4
tp4475
(F0.023331915274623864
I59
tp4476
s(I0
I0
I1
I3
I2
I8
I2
tp4477
(F0.48719565128855125
I25
tp4478
s(I0
I0
I0
I1
I1
I10
I1
tp4479
(F0.45512724270022764
I544
tp4480
s(I0
I0
I1
I0
I1
I1
I2
tp4481
(F0.37901995825953955
I177
tp4482
s(I0
I1
I0
I2
I1
I2
I1
tp4483
(F0.8921594730342624
I67
tp4484
s(I0
I1
I0
I3
I1
I3
I1
tp4485
(F0.822906346357534
I23
tp4486
s(I0
I0
I0
I2
I2
I6
I1
tp4487
(F0.6991643975229449
I494
tp4488
s(I0
I2
I0
I0
I2
I7
I1
tp4489
(F0.660891986014333
I2
tp4490
s(I0
I1
I1
I0
I2
I15
I4
tp4491
(F-0.13532265803472193
I6
tp4492
s(I0
I1
I0
I1
I2
I6
I1
tp4493
(F0.8433951212403483
I38
tp4494
s(I0
I1
I1
I2
I2
I11
I1
tp4495
(F0.7057833280049349
I2
tp4496
s(I0
I0
I0
I2
I2
I22
I4
tp4497
(F0.009776381863280597
I483
tp4498
s(I0
I0
I0
I0
I1
I6
I3
tp4499
(F0.23874602106942225
I872
tp4500
s(I0
I0
I1
I2
I2
I21
I3
tp4501
(F-0.035950897292498306
I4
tp4502
s(I0
I0
I0
I0
I2
I4
I1
tp4503
(F0.7115846004322103
I423
tp4504
s(I0
I0
I1
I1
I2
I15
I2
tp4505
(F0.5412292867417425
I51
tp4506
s(I0
I1
I0
I3
I2
I20
I1
tp4507
(F0.33672790135941194
I2
tp4508
s(I0
I0
I0
I1
I2
I10
I2
tp4509
(F0.5338238662367356
I2681
tp4510
s(I0
I0
I1
I0
I2
I3
I3
tp4511
(F-0.029647608991594042
I4
tp4512
s(I1
I0
I1
I3
I1
I0
I0
tp4513
(F1.0
I1
tp4514
s(I0
I1
I0
I1
I1
I14
I1
tp4515
(F0.5191989285987056
I9
tp4516
s(I0
I0
I0
I3
I2
I7
I1
tp4517
(F0.7055786761582337
I686
tp4518
s(I0
I1
I0
I1
I2
I17
I2
tp4519
(F0.5650758600526342
I24
tp4520
s(I0
I1
I0
I0
I2
I23
I1
tp4521
(F0.5024656298344435
I5
tp4522
s(I0
I0
I0
I3
I2
I23
I4
tp4523
(F-0.03520615935533135
I338
tp4524
s(I0
I0
I0
I1
I2
I17
I1
tp4525
(F0.7472874934895585
I898
tp4526
s(I0
I0
I1
I1
I2
I19
I1
tp4527
(F0.8277940715600844
I16
tp4528
s(I0
I0
I0
I3
I2
I18
I3
tp4529
(F0.42727514319833754
I151
tp4530
s(I0
I0
I0
I3
I1
I16
I1
tp4531
(F0.3456481725562854
I5
tp4532
s(I0
I1
I0
I0
I2
I26
I3
tp4533
(F-0.09259319780803807
I6
tp4534
s(I0
I1
I0
I2
I2
I8
I1
tp4535
(F0.7803292041439176
I95
tp4536
s(I0
I1
I0
I2
I1
I11
I2
tp4537
(F0.4074319320105568
I6
tp4538
s(I0
I0
I1
I3
I2
I6
I3
tp4539
(F0.3447953629396931
I26
tp4540
s(I0
I0
I1
I1
I2
I20
I4
tp4541
(F-0.10125021518497583
I71
tp4542
s(I0
I1
I1
I2
I1
I4
I3
tp4543
(F0.3903947343633817
I3
tp4544
s(I0
I0
I0
I0
I2
I13
I2
tp4545
(F0.544811444260422
I4461
tp4546
s(I0
I0
I1
I1
I2
I4
I3
tp4547
(F0.19138887988160144
I8
tp4548
s(I0
I1
I0
I3
I2
I13
I2
tp4549
(F0.6985803142095142
I21
tp4550
s(I0
I0
I0
I2
I2
I20
I1
tp4551
(F0.6341134704796121
I39
tp4552
s(I0
I1
I0
I1
I2
I20
I1
tp4553
(F0.7111867614080256
I11
tp4554
s(I0
I1
I0
I0
I2
I12
I1
tp4555
(F0.7829495326435303
I147
tp4556
s(I0
I2
I0
I2
I2
I23
I4
tp4557
(F-0.051887609773934
I7
tp4558
s(I0
I0
I0
I3
I2
I27
I4
tp4559
(F-0.15723586562344624
I241
tp4560
s(I0
I0
I0
I2
I1
I17
I3
tp4561
(F0.01876193663510454
I26
tp4562
s(I0
I0
I0
I0
I2
I22
I1
tp4563
(F0.4342044234547826
I36
tp4564
s(I0
I0
I0
I1
I2
I8
I1
tp4565
(F0.6878682887075684
I1334
tp4566
s(I0
I1
I0
I1
I1
I9
I3
tp4567
(F0.3657556526624351
I20
tp4568
s(I0
I0
I0
I2
I2
I25
I3
tp4569
(F-0.10182284117164547
I27
tp4570
s(I0
I1
I0
I1
I1
I12
I4
tp4571
(F0.058326345281670654
I611
tp4572
s(I0
I1
I0
I0
I1
I1
I1
tp4573
(F0.7219034855051052
I112
tp4574
s(I0
I0
I0
I3
I1
I9
I2
tp4575
(F0.3178862666789462
I447
tp4576
s(I0
I1
I0
I0
I2
I17
I2
tp4577
(F0.5410818217000405
I50
tp4578
s(I0
I0
I1
I2
I1
I16
I3
tp4579
(F-0.10297859022071616
I6
tp4580
s(I0
I1
I0
I1
I2
I22
I2
tp4581
(F-0.031916625512833634
I3
tp4582
s(I0
I0
I1
I0
I2
I6
I2
tp4583
(F0.49294991548389605
I3
tp4584
s(I0
I0
I0
I1
I2
I23
I2
tp4585
(F0.07309849044045788
I54
tp4586
s(I0
I1
I1
I1
I1
I3
I2
tp4587
(F0.5576803085636067
I6
tp4588
s(I0
I0
I0
I3
I0
I0
I1
tp4589
(F-0.14843583503541893
I11070
tp4590
s(I0
I1
I1
I3
I1
I8
I1
tp4591
(F0.62232845606374
I2
tp4592
s(I0
I1
I0
I3
I2
I33
I4
tp4593
(F-0.028104999867941474
I3
tp4594
s(I0
I2
I0
I3
I1
I13
I4
tp4595
(F-0.038530407343904276
I7
tp4596
s(I0
I0
I1
I1
I2
I16
I4
tp4597
(F0.08648724053444548
I59
tp4598
s(I0
I0
I0
I1
I1
I17
I1
tp4599
(F0.2676193189718713
I7
tp4600
s(I0
I1
I0
I2
I1
I9
I1
tp4601
(F0.6212889265904821
I30
tp4602
s(I0
I0
I1
I1
I1
I13
I4
tp4603
(F-0.13686547170969987
I52
tp4604
s(I0
I1
I0
I3
I1
I4
I1
tp4605
(F0.7573777374125787
I19
tp4606
s(I0
I0
I0
I0
I1
I14
I2
tp4607
(F0.21896857849424844
I109
tp4608
s(I0
I0
I0
I0
I1
I4
I2
tp4609
(F0.4992513209197455
I1288
tp4610
s(I0
I0
I1
I3
I2
I4
I4
tp4611
(F-0.0195
I3
tp4612
s(I0
I1
I0
I2
I0
I0
I1
tp4613
(F0.39763622025920325
I33
tp4614
s(I0
I0
I0
I0
I2
I15
I1
tp4615
(F0.7295044403824568
I2118
tp4616
s(I0
I0
I1
I0
I2
I29
I4
tp4617
(F-0.15841007943891114
I26
tp4618
s(I0
I1
I0
I3
I2
I15
I1
tp4619
(F0.8407565085727671
I32
tp4620
s(I0
I0
I1
I0
I2
I24
I3
tp4621
(F-0.10100578147893867
I8
tp4622
s(I0
I1
I0
I1
I2
I3
I1
tp4623
(F0.059365107816697016
I4
tp4624
s(I0
I1
I0
I0
I1
I2
I3
tp4625
(F0.4523732409704956
I205
tp4626
s(I0
I1
I0
I0
I2
I8
I1
tp4627
(F0.7840861080683991
I114
tp4628
s(I0
I0
I0
I3
I2
I16
I2
tp4629
(F0.5284955393429267
I908
tp4630
s(I0
I1
I0
I2
I2
I14
I4
tp4631
(F0.08519608208552673
I45
tp4632
s(I0
I1
I0
I0
I2
I24
I2
tp4633
(F-0.0441506019120003
I2
tp4634
s(I0
I0
I0
I1
I2
I30
I1
tp4635
(F0.5466762826007745
I11
tp4636
s(I0
I0
I1
I0
I2
I19
I1
tp4637
(F0.8559794573933214
I24
tp4638
s(I0
I0
I1
I2
I0
I0
I3
tp4639
(F-0.1978656755593456
I1166
tp4640
s(I0
I0
I0
I2
I1
I2
I4
tp4641
(F0.1293725806202465
I3157
tp4642
s(I0
I0
I0
I3
I1
I11
I1
tp4643
(F0.43006150215226446
I255
tp4644
s(I0
I0
I0
I2
I2
I9
I3
tp4645
(F0.399367866245008
I2231
tp4646
s(I0
I0
I0
I2
I2
I33
I4
tp4647
(F-0.14109636617947538
I103
tp4648
s(I0
I0
I1
I1
I1
I9
I4
tp4649
(F-0.06527058622125678
I118
tp4650
s(I0
I0
I1
I3
I2
I8
I4
tp4651
(F0.19995539453458672
I83
tp4652
s(I0
I0
I1
I1
I2
I18
I1
tp4653
(F0.6930691409390581
I19
tp4654
s(I0
I0
I1
I3
I2
I13
I3
tp4655
(F0.3555318185335069
I12
tp4656
s(I0
I0
I0
I1
I1
I15
I4
tp4657
(F-0.040011538889186314
I231
tp4658
s(I0
I1
I0
I3
I1
I3
I3
tp4659
(F0.4621032480666293
I133
tp4660
s(I0
I1
I0
I2
I2
I18
I1
tp4661
(F0.7147675037289999
I21
tp4662
s(I0
I1
I0
I3
I1
I6
I4
tp4663
(F0.17064952193960153
I3842
tp4664
s(I0
I0
I1
I3
I2
I8
I1
tp4665
(F0.8258721916304966
I104
tp4666
s(I0
I1
I0
I0
I2
I23
I3
tp4667
(F-0.10824420030905592
I25
tp4668
s(I0
I0
I0
I0
I1
I6
I1
tp4669
(F0.6114973321501568
I852
tp4670
s(I0
I0
I1
I2
I2
I21
I1
tp4671
(F0.6742423502332024
I6
tp4672
s(I0
I1
I1
I2
I2
I22
I4
tp4673
(F-0.06616645539651796
I8
tp4674
s(I0
I0
I1
I3
I2
I18
I4
tp4675
(F-0.09622189463007774
I54
tp4676
s(I0
I1
I0
I1
I2
I19
I1
tp4677
(F0.8555083431907621
I17
tp4678
s(I0
I0
I0
I2
I2
I27
I2
tp4679
(F-0.07374885183826332
I6
tp4680
s(I0
I0
I0
I0
I2
I17
I1
tp4681
(F0.7189782391210778
I818
tp4682
s(I0
I0
I1
I2
I1
I14
I1
tp4683
(F0.3407897858239789
I7
tp4684
s(I0
I1
I0
I1
I1
I14
I3
tp4685
(F-0.11396580191970221
I4
tp4686
s(I0
I0
I0
I3
I2
I7
I3
tp4687
(F0.40446758985995507
I988
tp4688
s(I0
I1
I1
I1
I2
I17
I4
tp4689
(F-0.1277910991201159
I6
tp4690
s(I0
I0
I1
I3
I1
I7
I1
tp4691
(F0.5704306332029825
I55
tp4692
s(I0
I0
I0
I3
I2
I2
I4
tp4693
(F-0.028104999867941474
I3
tp4694
s(I0
I0
I0
I1
I2
I17
I3
tp4695
(F0.4350928181918379
I648
tp4696
s(I0
I0
I0
I3
I2
I18
I1
tp4697
(F0.7370327682434369
I254
tp4698
s(I0
I1
I0
I2
I2
I25
I3
tp4699
(F-0.0742689565952472
I8
tp4700
s(I0
I1
I0
I0
I2
I26
I1
tp4701
(F-0.027440693581910786
I6
tp4702
s(I0
I1
I0
I2
I2
I28
I4
tp4703
(F-0.14242627351914805
I16
tp4704
s(I0
I1
I1
I0
I1
I3
I4
tp4705
(F0.2336481235167408
I949
tp4706
s(I0
I0
I1
I0
I2
I22
I3
tp4707
(F-0.11073678145090411
I13
tp4708
s(I0
I0
I1
I1
I1
I11
I1
tp4709
(F0.4242132858007058
I22
tp4710
s(I0
I1
I0
I3
I1
I10
I4
tp4711
(F0.10341894355478556
I1063
tp4712
s(I0
I0
I1
I3
I2
I6
I1
tp4713
(F0.8490388608238741
I22
tp4714
s(I0
I1
I1
I2
I2
I26
I4
tp4715
(F-0.028104999867941474
I3
tp4716
s(I0
I0
I1
I3
I2
I22
I4
tp4717
(F-0.16542851305972858
I24
tp4718
s(I0
I0
I1
I1
I1
I6
I3
tp4719
(F0.2003155417178659
I53
tp4720
s(I0
I0
I0
I0
I2
I13
I4
tp4721
(F0.14234427133266261
I3243
tp4722
s(I0
I0
I1
I1
I2
I4
I1
tp4723
(F0.7973476515259085
I22
tp4724
s(I0
I0
I0
I2
I2
I20
I3
tp4725
(F0.41212543789062295
I81
tp4726
s(I0
I0
I0
I1
I1
I3
I3
tp4727
(F0.34043085252143174
I2566
tp4728
s(I0
I0
I0
I0
I1
I8
I4
tp4729
(F0.03994016616344893
I1673
tp4730
s(I0
I1
I1
I1
I2
I21
I4
tp4731
(F-0.02848840577874748
I4
tp4732
s(I0
I1
I0
I1
I2
I20
I3
tp4733
(F-0.10074841069148054
I3
tp4734
s(I0
I0
I0
I3
I2
I14
I4
tp4735
(F0.13845335647790255
I1865
tp4736
s(I0
I0
I1
I2
I2
I7
I1
tp4737
(F0.6916997209431597
I74
tp4738
s(I0
I0
I0
I0
I2
I22
I3
tp4739
(F0.18829501524916617
I54
tp4740
s(I0
I0
I0
I2
I2
I25
I1
tp4741
(F0.27006237681602624
I14
tp4742
s(I0
I0
I0
I0
I2
I19
I4
tp4743
(F0.0699289967745104
I875
tp4744
s(I0
I1
I0
I1
I1
I12
I2
tp4745
(F0.3929205722969497
I9
tp4746
s(I0
I1
I0
I0
I1
I1
I3
tp4747
(F0.37414351305217824
I3787
tp4748
s(I0
I0
I1
I0
I2
I25
I3
tp4749
(F-0.10333499053038123
I15
tp4750
s(I0
I1
I1
I0
I1
I7
I4
tp4751
(F0.1348122432369968
I2996
tp4752
s(I0
I0
I0
I2
I1
I12
I4
tp4753
(F-0.046301223924249096
I641
tp4754
s(I0
I0
I1
I3
I1
I10
I3
tp4755
(F-0.12607170336847284
I11
tp4756
s(I0
I0
I0
I2
I1
I5
I3
tp4757
(F0.2881530969667895
I2293
tp4758
s(I0
I0
I1
I3
I2
I15
I2
tp4759
(F0.35304672521289726
I10
tp4760
s(I0
I1
I1
I3
I1
I18
I4
tp4761
(F0.013624221113348977
I17
tp4762
s(I0
I0
I0
I1
I1
I1
I4
tp4763
(F0.28831246707047553
I453
tp4764
s(I0
I0
I1
I1
I1
I13
I2
tp4765
(F0.14687535601516372
I4
tp4766
s(I0
I0
I1
I0
I1
I8
I1
tp4767
(F0.5047696553703624
I57
tp4768
s(I0
I1
I0
I3
I1
I4
I3
tp4769
(F0.4268179093278473
I17
tp4770
s(I0
I0
I0
I0
I1
I4
I4
tp4771
(F0.08170813027113726
I3510
tp4772
s(I0
I1
I1
I2
I0
I0
I4
tp4773
(F-0.04730823491766527
I47
tp4774
s(I0
I0
I1
I3
I2
I20
I1
tp4775
(F0.5332042957350545
I2
tp4776
s(I0
I1
I0
I2
I0
I0
I3
tp4777
(F0.1919374493520494
I110
tp4778
s(I0
I1
I0
I1
I2
I13
I4
tp4779
(F0.1817569165776214
I36
tp4780
s(I0
I0
I0
I0
I2
I31
I4
tp4781
(F-0.14985142488218803
I116
tp4782
s(I0
I1
I1
I2
I1
I9
I4
tp4783
(F0.11718575692789053
I2695
tp4784
s(I0
I0
I1
I2
I1
I9
I1
tp4785
(F0.4997083226364455
I40
tp4786
s(I0
I0
I1
I2
I2
I9
I2
tp4787
(F0.5853011456968918
I288
tp4788
s(I0
I0
I1
I3
I1
I12
I1
tp4789
(F0.40600228241660974
I3
tp4790
s(I0
I1
I1
I3
I2
I9
I1
tp4791
(F0.48436002221221147
I2
tp4792
s(I0
I1
I0
I0
I2
I24
I4
tp4793
(F-0.11995411483140121
I24
tp4794
s(I0
I1
I0
I0
I1
I6
I2
tp4795
(F0.46824626775429395
I28
tp4796
s(I0
I1
I0
I0
I1
I3
I2
tp4797
(F0.6365419561822945
I64
tp4798
s(I0
I0
I1
I2
I0
I0
I1
tp4799
(F-0.032904169569934805
I994
tp4800
s(I0
I1
I1
I0
I2
I32
I4
tp4801
(F-0.035950897292498306
I4
tp4802
s(I0
I0
I1
I1
I2
I18
I3
tp4803
(F0.19735376310891115
I9
tp4804
s(I0
I0
I1
I3
I2
I13
I1
tp4805
(F0.7193608638015742
I47
tp4806
s(I0
I0
I1
I1
I1
I4
I2
tp4807
(F0.4568234046641935
I109
tp4808
s(I0
I1
I0
I3
I1
I6
I2
tp4809
(F0.5007308916279443
I11
tp4810
s(I0
I1
I1
I2
I1
I13
I4
tp4811
(F0.059599684985473377
I973
tp4812
s(I0
I0
I0
I2
I2
I11
I3
tp4813
(F0.420426962004199
I2097
tp4814
s(I0
I0
I1
I3
I2
I18
I2
tp4815
(F-0.06858886994556782
I4
tp4816
s(I0
I0
I1
I2
I2
I16
I4
tp4817
(F0.12072096506853285
I92
tp4818
s(I0
I1
I0
I1
I2
I19
I3
tp4819
(F-0.0467270950033899
I6
tp4820
s(I0
I2
I0
I2
I2
I14
I4
tp4821
(F-0.05669609157268063
I8
tp4822
s(I0
I0
I0
I2
I2
I27
I4
tp4823
(F-0.15263889901489391
I326
tp4824
s(I0
I0
I0
I0
I1
I2
I1
tp4825
(F0.8237256982668081
I1636
tp4826
s(I0
I1
I0
I0
I2
I7
I2
tp4827
(F0.6118540517035027
I85
tp4828
s(I0
I0
I1
I2
I1
I14
I3
tp4829
(F-0.07301123906585305
I11
tp4830
s(I0
I1
I0
I3
I2
I25
I3
tp4831
(F-0.04728704174681088
I14
tp4832
s(I0
I0
I1
I2
I1
I11
I4
tp4833
(F-0.09183149222728158
I45
tp4834
s(I0
I0
I1
I0
I2
I14
I1
tp4835
(F0.7240596862107642
I122
tp4836
s(I0
I1
I0
I0
I1
I8
I3
tp4837
(F0.34976510166744784
I15
tp4838
s(I0
I1
I0
I2
I2
I9
I2
tp4839
(F0.5934119618209563
I93
tp4840
s(I0
I1
I0
I0
I2
I10
I2
tp4841
(F0.5985476891750171
I122
tp4842
s(I0
I0
I0
I2
I1
I5
I2
tp4843
(F0.4716390136715887
I1433
tp4844
s(I0
I0
I0
I1
I2
I28
I2
tp4845
(F0.09581913769242903
I13
tp4846
s(I0
I1
I0
I2
I2
I28
I2
tp4847
(F-0.0644203698490753
I2
tp4848
s(I0
I0
I1
I3
I2
I33
I4
tp4849
(F-0.13400813424019017
I13
tp4850
s(I0
I0
I0
I0
I2
I32
I2
tp4851
(F-0.04600625407699712
I3
tp4852
s(I0
I0
I1
I1
I1
I11
I3
tp4853
(F-0.011301282672027818
I11
tp4854
s(I0
I0
I0
I1
I1
I8
I2
tp4855
(F0.3454188157505454
I1293
tp4856
s(I0
I0
I1
I0
I1
I15
I1
tp4857
(F0.3400823592215388
I2
tp4858
s(I1
I1
I0
I2
I2
I0
I0
tp4859
(F1.0
I1
tp4860
s(I0
I0
I1
I1
I1
I6
I1
tp4861
(F0.5925301540269475
I104
tp4862
s(I0
I0
I0
I2
I2
I4
I2
tp4863
(F0.510422846848649
I149
tp4864
s(I0
I1
I0
I1
I2
I4
I2
tp4865
(F-0.01
I1
tp4866
s(I0
I0
I0
I0
I2
I6
I2
tp4867
(F0.4812759881295043
I1212
tp4868
s(I0
I0
I0
I2
I2
I9
I2
tp4869
(F0.5109345208124504
I2276
tp4870
s(I0
I1
I0
I3
I2
I22
I2
tp4871
(F0.027073604043835714
I4
tp4872
s(I0
I0
I1
I2
I2
I7
I3
tp4873
(F0.363684043462196
I214
tp4874
s(I0
I0
I1
I3
I1
I14
I4
tp4875
(F-0.17138896311205312
I31
tp4876
s(I0
I0
I0
I3
I2
I9
I3
tp4877
(F0.41024142024138954
I1726
tp4878
s(I0
I0
I0
I0
I2
I19
I2
tp4879
(F0.5103941708255457
I240
tp4880
s(I0
I2
I0
I2
I2
I24
I4
tp4881
(F-0.1317358346780632
I3
tp4882
s(I0
I1
I1
I3
I2
I14
I1
tp4883
(F0.7800319293562649
I5
tp4884
s(I0
I0
I0
I1
I2
I7
I3
tp4885
(F0.36988579390947784
I2943
tp4886
s(I0
I1
I0
I2
I2
I23
I3
tp4887
(F-0.05040120428858469
I7
tp4888
s(I0
I1
I0
I1
I1
I3
I4
tp4889
(F0.23638045934976984
I11549
tp4890
s(I0
I0
I0
I2
I1
I11
I3
tp4891
(F0.154006018786683
I302
tp4892
s(I0
I0
I0
I3
I2
I3
I3
tp4893
(F0.32105335451366057
I42
tp4894
s(I0
I0
I1
I0
I1
I8
I3
tp4895
(F0.03592056938323072
I28
tp4896
s(I0
I0
I1
I1
I2
I29
I4
tp4897
(F-0.15027582790403998
I31
tp4898
s(I0
I0
I0
I1
I1
I6
I3
tp4899
(F0.23215719394584786
I1208
tp4900
s(I0
I0
I1
I0
I1
I13
I4
tp4901
(F-0.153758913806529
I56
tp4902
s(I0
I1
I0
I3
I1
I15
I4
tp4903
(F-0.040607304708812235
I70
tp4904
s(I0
I1
I0
I2
I1
I6
I3
tp4905
(F0.3751750428944477
I18
tp4906
s(I0
I0
I1
I3
I1
I3
I1
tp4907
(F0.7990254994364104
I81
tp4908
s(I0
I0
I0
I2
I2
I2
I3
tp4909
(F0.026838472108560885
I6
tp4910
s(I0
I0
I0
I0
I1
I15
I2
tp4911
(F0.2145838460002948
I37
tp4912
s(I0
I0
I1
I2
I2
I30
I4
tp4913
(F-0.14614917899767804
I10
tp4914
s(I0
I1
I0
I1
I2
I10
I3
tp4915
(F0.46160654127905826
I81
tp4916
s(I0
I0
I0
I0
I2
I24
I3
tp4917
(F-0.04219367744042664
I37
tp4918
s(I0
I0
I1
I2
I1
I9
I3
tp4919
(F0.061499774713718654
I22
tp4920
s(I0
I1
I0
I3
I2
I16
I3
tp4921
(F-0.07087917457243186
I30
tp4922
s(I0
I1
I0
I1
I1
I7
I4
tp4923
(F0.13666472834474888
I5254
tp4924
s(I0
I0
I0
I3
I2
I11
I4
tp4925
(F0.17896494033474522
I2348
tp4926
s(I0
I1
I1
I1
I2
I10
I1
tp4927
(F-0.0195
I2
tp4928
s(I0
I0
I0
I3
I1
I4
I4
tp4929
(F0.07383425834426122
I2937
tp4930
s(I0
I1
I1
I3
I2
I12
I4
tp4931
(F-0.10214821640943175
I13
tp4932
s(I0
I0
I0
I1
I2
I33
I4
tp4933
(F-0.12999741849266883
I63
tp4934
s(I0
I1
I0
I2
I2
I21
I4
tp4935
(F-0.05302641015314942
I36
tp4936
s(I0
I0
I0
I1
I2
I29
I3
tp4937
(F-0.09287337651875736
I39
tp4938
sI1333020
tp4939
.